                                      1 ;--------------------------------------------------------
                                      2 ; File Created by SDCC : free open source ANSI-C Compiler
                                      3 ; Version 4.1.6 #12439 (MINGW32)
                                      4 ;--------------------------------------------------------
                                      5 	.module main
                                      6 	.optsdcc -mgbz80
                                      7 	
                                      8 ;--------------------------------------------------------
                                      9 ; Public variables in this module
                                     10 ;--------------------------------------------------------
                                     11 	.globl _main
                                     12 	.globl _enemyMovement
                                     13 	.globl _enemySetup
                                     14 	.globl _marioMovement
                                     15 	.globl _canEntityMove
                                     16 	.globl _marioSetup
                                     17 	.globl _moveMario
                                     18 	.globl _font_set
                                     19 	.globl _font_load
                                     20 	.globl _font_init
                                     21 	.globl _set_sprite_data
                                     22 	.globl _set_win_tiles
                                     23 	.globl _set_bkg_tiles
                                     24 	.globl _set_bkg_data
                                     25 	.globl _joypad
                                     26 	.globl _delay
                                     27 	.globl _initarand
                                     28 	.globl _rand
                                     29 	.globl _enemy
                                     30 	.globl _tile
                                     31 	.globl _player
                                     32 	.globl _scoreboard
                                     33 	.globl _map
                                     34 	.globl _turtle
                                     35 	.globl _mario
                                     36 ;--------------------------------------------------------
                                     37 ; special function registers
                                     38 ;--------------------------------------------------------
                                     39 ;--------------------------------------------------------
                                     40 ; ram data
                                     41 ;--------------------------------------------------------
                                     42 	.area _DATA
      000000                         43 _mario::
      000000                         44 	.ds 13
      00000D                         45 _turtle::
      00000D                         46 	.ds 6
                                     47 ;--------------------------------------------------------
                                     48 ; ram data
                                     49 ;--------------------------------------------------------
                                     50 	.area _INITIALIZED
      000000                         51 _map::
      000000                         52 	.ds 360
      000168                         53 _scoreboard::
      000168                         54 	.ds 6
      00016E                         55 _player::
      00016E                         56 	.ds 160
      00020E                         57 _tile::
      00020E                         58 	.ds 80
      00025E                         59 _enemy::
      00025E                         60 	.ds 16
                                     61 ;--------------------------------------------------------
                                     62 ; absolute external ram data
                                     63 ;--------------------------------------------------------
                                     64 	.area _DABS (ABS)
                                     65 ;--------------------------------------------------------
                                     66 ; global & static initialisations
                                     67 ;--------------------------------------------------------
                                     68 	.area _HOME
                                     69 	.area _GSINIT
                                     70 	.area _GSFINAL
                                     71 	.area _GSINIT
                                     72 ;--------------------------------------------------------
                                     73 ; Home
                                     74 ;--------------------------------------------------------
                                     75 	.area _HOME
                                     76 	.area _HOME
                                     77 ;--------------------------------------------------------
                                     78 ; code
                                     79 ;--------------------------------------------------------
                                     80 	.area _CODE
                                     81 ;sprites.c:13: void moveMario(struct Character *character, UINT8 x, UINT8 y)
                                     82 ;	---------------------------------
                                     83 ; Function moveMario
                                     84 ; ---------------------------------
      000000                         85 _moveMario::
      000000 E8 FB                   86 	add	sp, #-5
                                     87 ;sprites.c:15: move_sprite(character->spritids[0], x, y);
      000002 F8 0A                   88 	ldhl	sp,	#10
      000004 7E                      89 	ld	a, (hl)
      000005 F8 04                   90 	ldhl	sp,	#4
      000007 77                      91 	ld	(hl), a
      000008 F8 09                   92 	ldhl	sp,	#9
      00000A 7E                      93 	ld	a, (hl)
      00000B F8 01                   94 	ldhl	sp,	#1
      00000D 77                      95 	ld	(hl), a
      00000E F8 07                   96 	ldhl	sp,	#7
      000010 2A                      97 	ld	a, (hl+)
      000011 4F                      98 	ld	c, a
      000012 46                      99 	ld	b, (hl)
      000013 0A                     100 	ld	a, (bc)
                                    101 ;c:/gbdk-2020/include/gb/gb.h:1247: OAM_item_t * itm = &shadow_OAM[nb];
      000014 6F                     102 	ld	l, a
                                    103 ;	spillPairReg hl
                                    104 ;	spillPairReg hl
      000015 26 00                  105 	ld	h, #0x00
                                    106 ;	spillPairReg hl
                                    107 ;	spillPairReg hl
      000017 29                     108 	add	hl, hl
      000018 29                     109 	add	hl, hl
      000019 11r00r00               110 	ld	de, #_shadow_OAM
      00001C 19                     111 	add	hl, de
      00001D 5D                     112 	ld	e, l
      00001E 54                     113 	ld	d, h
                                    114 ;c:/gbdk-2020/include/gb/gb.h:1248: itm->y=y, itm->x=x;
      00001F F8 04                  115 	ldhl	sp,	#4
      000021 7E                     116 	ld	a, (hl)
      000022 12                     117 	ld	(de), a
      000023 13                     118 	inc	de
      000024 F8 01                  119 	ldhl	sp,	#1
      000026 7E                     120 	ld	a, (hl)
      000027 12                     121 	ld	(de), a
                                    122 ;sprites.c:16: move_sprite(character->spritids[1], x + 8, y);
      000028 2A                     123 	ld	a, (hl+)
      000029 23                     124 	inc	hl
      00002A 77                     125 	ld	(hl), a
      00002B 3A                     126 	ld	a, (hl-)
      00002C C6 08                  127 	add	a, #0x08
      00002E 77                     128 	ld	(hl), a
      00002F 3A                     129 	ld	a, (hl-)
      000030 2B                     130 	dec	hl
      000031 77                     131 	ld	(hl), a
      000032 69                     132 	ld	l, c
                                    133 ;	spillPairReg hl
                                    134 ;	spillPairReg hl
      000033 60                     135 	ld	h, b
                                    136 ;	spillPairReg hl
                                    137 ;	spillPairReg hl
      000034 23                     138 	inc	hl
                                    139 ;c:/gbdk-2020/include/gb/gb.h:1247: OAM_item_t * itm = &shadow_OAM[nb];
      000035 6E                     140 	ld	l, (hl)
                                    141 ;	spillPairReg hl
                                    142 ;	spillPairReg hl
      000036 26 00                  143 	ld	h, #0x00
                                    144 ;	spillPairReg hl
                                    145 ;	spillPairReg hl
      000038 29                     146 	add	hl, hl
      000039 29                     147 	add	hl, hl
      00003A 11r00r00               148 	ld	de, #_shadow_OAM
      00003D 19                     149 	add	hl, de
      00003E 5D                     150 	ld	e, l
      00003F 54                     151 	ld	d, h
                                    152 ;c:/gbdk-2020/include/gb/gb.h:1248: itm->y=y, itm->x=x;
      000040 F8 04                  153 	ldhl	sp,	#4
      000042 7E                     154 	ld	a, (hl)
      000043 12                     155 	ld	(de), a
      000044 13                     156 	inc	de
      000045 F8 00                  157 	ldhl	sp,	#0
      000047 7E                     158 	ld	a, (hl)
      000048 12                     159 	ld	(de), a
                                    160 ;sprites.c:17: move_sprite(character->spritids[2], x + 16, y);
      000049 F8 03                  161 	ldhl	sp,	#3
      00004B 7E                     162 	ld	a, (hl)
      00004C C6 10                  163 	add	a, #0x10
      00004E 77                     164 	ld	(hl), a
      00004F 7E                     165 	ld	a, (hl)
      000050 F8 00                  166 	ldhl	sp,	#0
      000052 77                     167 	ld	(hl), a
      000053 69                     168 	ld	l, c
                                    169 ;	spillPairReg hl
                                    170 ;	spillPairReg hl
      000054 60                     171 	ld	h, b
                                    172 ;	spillPairReg hl
                                    173 ;	spillPairReg hl
      000055 23                     174 	inc	hl
      000056 23                     175 	inc	hl
                                    176 ;c:/gbdk-2020/include/gb/gb.h:1247: OAM_item_t * itm = &shadow_OAM[nb];
      000057 6E                     177 	ld	l, (hl)
                                    178 ;	spillPairReg hl
                                    179 ;	spillPairReg hl
      000058 26 00                  180 	ld	h, #0x00
                                    181 ;	spillPairReg hl
                                    182 ;	spillPairReg hl
      00005A 29                     183 	add	hl, hl
      00005B 29                     184 	add	hl, hl
      00005C 11r00r00               185 	ld	de, #_shadow_OAM
      00005F 19                     186 	add	hl, de
      000060 5D                     187 	ld	e, l
      000061 54                     188 	ld	d, h
                                    189 ;c:/gbdk-2020/include/gb/gb.h:1248: itm->y=y, itm->x=x;
      000062 F8 04                  190 	ldhl	sp,	#4
      000064 7E                     191 	ld	a, (hl)
      000065 12                     192 	ld	(de), a
      000066 13                     193 	inc	de
      000067 F8 00                  194 	ldhl	sp,	#0
      000069 7E                     195 	ld	a, (hl)
      00006A 12                     196 	ld	(de), a
                                    197 ;sprites.c:18: move_sprite(character->spritids[3], x, y + 8);
      00006B F8 04                  198 	ldhl	sp,	#4
      00006D 7E                     199 	ld	a, (hl)
      00006E C6 08                  200 	add	a, #0x08
      000070 F8 00                  201 	ldhl	sp,	#0
      000072 77                     202 	ld	(hl), a
      000073 5E                     203 	ld	e, (hl)
      000074 69                     204 	ld	l, c
                                    205 ;	spillPairReg hl
                                    206 ;	spillPairReg hl
      000075 60                     207 	ld	h, b
                                    208 ;	spillPairReg hl
                                    209 ;	spillPairReg hl
      000076 23                     210 	inc	hl
      000077 23                     211 	inc	hl
      000078 23                     212 	inc	hl
      000079 56                     213 	ld	d, (hl)
                                    214 ;c:/gbdk-2020/include/gb/gb.h:1247: OAM_item_t * itm = &shadow_OAM[nb];
      00007A 6A                     215 	ld	l, d
                                    216 ;	spillPairReg hl
                                    217 ;	spillPairReg hl
      00007B 26 00                  218 	ld	h, #0x00
                                    219 ;	spillPairReg hl
                                    220 ;	spillPairReg hl
      00007D 29                     221 	add	hl, hl
      00007E 29                     222 	add	hl, hl
      00007F D5                     223 	push	de
      000080 11r00r00               224 	ld	de, #_shadow_OAM
      000083 19                     225 	add	hl, de
      000084 D1                     226 	pop	de
                                    227 ;c:/gbdk-2020/include/gb/gb.h:1248: itm->y=y, itm->x=x;
      000085 7B                     228 	ld	a, e
      000086 22                     229 	ld	(hl+), a
      000087 5D                     230 	ld	e, l
      000088 54                     231 	ld	d, h
      000089 F8 01                  232 	ldhl	sp,	#1
      00008B 7E                     233 	ld	a, (hl)
      00008C 12                     234 	ld	(de), a
                                    235 ;sprites.c:19: move_sprite(character->spritids[4], x + 8, y + 8);
      00008D 21 04 00               236 	ld	hl, #0x0004
      000090 09                     237 	add	hl, bc
      000091 5E                     238 	ld	e, (hl)
                                    239 ;c:/gbdk-2020/include/gb/gb.h:1247: OAM_item_t * itm = &shadow_OAM[nb];
      000092 26 00                  240 	ld	h, #0x00
                                    241 ;	spillPairReg hl
                                    242 ;	spillPairReg hl
      000094 6B                     243 	ld	l, e
      000095 29                     244 	add	hl, hl
      000096 29                     245 	add	hl, hl
      000097 11r00r00               246 	ld	de, #_shadow_OAM
      00009A 19                     247 	add	hl, de
      00009B 5D                     248 	ld	e, l
      00009C 54                     249 	ld	d, h
                                    250 ;c:/gbdk-2020/include/gb/gb.h:1248: itm->y=y, itm->x=x;
      00009D F8 00                  251 	ldhl	sp,	#0
      00009F 2A                     252 	ld	a, (hl+)
      0000A0 23                     253 	inc	hl
      0000A1 12                     254 	ld	(de), a
      0000A2 13                     255 	inc	de
      0000A3 7E                     256 	ld	a, (hl)
      0000A4 12                     257 	ld	(de), a
                                    258 ;sprites.c:20: move_sprite(character->spritids[5], x + 16, y + 8);
      0000A5 21 05 00               259 	ld	hl, #0x0005
      0000A8 09                     260 	add	hl, bc
      0000A9 5E                     261 	ld	e, (hl)
                                    262 ;c:/gbdk-2020/include/gb/gb.h:1247: OAM_item_t * itm = &shadow_OAM[nb];
      0000AA 26 00                  263 	ld	h, #0x00
                                    264 ;	spillPairReg hl
                                    265 ;	spillPairReg hl
      0000AC 6B                     266 	ld	l, e
      0000AD 29                     267 	add	hl, hl
      0000AE 29                     268 	add	hl, hl
      0000AF 11r00r00               269 	ld	de, #_shadow_OAM
      0000B2 19                     270 	add	hl, de
      0000B3 5D                     271 	ld	e, l
      0000B4 54                     272 	ld	d, h
                                    273 ;c:/gbdk-2020/include/gb/gb.h:1248: itm->y=y, itm->x=x;
      0000B5 F8 00                  274 	ldhl	sp,	#0
      0000B7 7E                     275 	ld	a, (hl)
      0000B8 12                     276 	ld	(de), a
      0000B9 13                     277 	inc	de
      0000BA F8 03                  278 	ldhl	sp,	#3
                                    279 ;sprites.c:21: move_sprite(character->spritids[6], x, y + 16);
      0000BC 2A                     280 	ld	a, (hl+)
      0000BD 12                     281 	ld	(de), a
      0000BE 7E                     282 	ld	a, (hl)
      0000BF C6 10                  283 	add	a, #0x10
      0000C1 77                     284 	ld	(hl), a
      0000C2 5E                     285 	ld	e, (hl)
      0000C3 21 06 00               286 	ld	hl, #0x0006
      0000C6 09                     287 	add	hl, bc
      0000C7 56                     288 	ld	d, (hl)
                                    289 ;c:/gbdk-2020/include/gb/gb.h:1247: OAM_item_t * itm = &shadow_OAM[nb];
      0000C8 6A                     290 	ld	l, d
                                    291 ;	spillPairReg hl
                                    292 ;	spillPairReg hl
      0000C9 26 00                  293 	ld	h, #0x00
                                    294 ;	spillPairReg hl
                                    295 ;	spillPairReg hl
      0000CB 29                     296 	add	hl, hl
      0000CC 29                     297 	add	hl, hl
      0000CD D5                     298 	push	de
      0000CE 11r00r00               299 	ld	de, #_shadow_OAM
      0000D1 19                     300 	add	hl, de
      0000D2 D1                     301 	pop	de
                                    302 ;c:/gbdk-2020/include/gb/gb.h:1248: itm->y=y, itm->x=x;
      0000D3 7B                     303 	ld	a, e
      0000D4 22                     304 	ld	(hl+), a
      0000D5 5D                     305 	ld	e, l
      0000D6 54                     306 	ld	d, h
      0000D7 F8 01                  307 	ldhl	sp,	#1
      0000D9 7E                     308 	ld	a, (hl)
      0000DA 12                     309 	ld	(de), a
                                    310 ;sprites.c:22: move_sprite(character->spritids[7], x + 8, y + 16);
      0000DB 21 07 00               311 	ld	hl, #0x0007
      0000DE 09                     312 	add	hl, bc
      0000DF 5E                     313 	ld	e, (hl)
                                    314 ;c:/gbdk-2020/include/gb/gb.h:1247: OAM_item_t * itm = &shadow_OAM[nb];
      0000E0 26 00                  315 	ld	h, #0x00
                                    316 ;	spillPairReg hl
                                    317 ;	spillPairReg hl
      0000E2 6B                     318 	ld	l, e
      0000E3 29                     319 	add	hl, hl
      0000E4 29                     320 	add	hl, hl
      0000E5 11r00r00               321 	ld	de, #_shadow_OAM
      0000E8 19                     322 	add	hl, de
      0000E9 5D                     323 	ld	e, l
      0000EA 54                     324 	ld	d, h
                                    325 ;c:/gbdk-2020/include/gb/gb.h:1248: itm->y=y, itm->x=x;
      0000EB F8 04                  326 	ldhl	sp,	#4
      0000ED 3A                     327 	ld	a, (hl-)
      0000EE 2B                     328 	dec	hl
      0000EF 12                     329 	ld	(de), a
      0000F0 13                     330 	inc	de
      0000F1 7E                     331 	ld	a, (hl)
      0000F2 12                     332 	ld	(de), a
                                    333 ;sprites.c:23: move_sprite(character->spritids[8], x + 16, y + 16);
      0000F3 21 08 00               334 	ld	hl, #0x0008
      0000F6 09                     335 	add	hl, bc
                                    336 ;c:/gbdk-2020/include/gb/gb.h:1247: OAM_item_t * itm = &shadow_OAM[nb];
      0000F7 6E                     337 	ld	l, (hl)
      0000F8 01r00r00               338 	ld	bc, #_shadow_OAM+0
                                    339 ;	spillPairReg hl
                                    340 ;	spillPairReg hl
      0000FB 26 00                  341 	ld	h, #0x00
                                    342 ;	spillPairReg hl
                                    343 ;	spillPairReg hl
      0000FD 29                     344 	add	hl, hl
      0000FE 29                     345 	add	hl, hl
      0000FF 09                     346 	add	hl, bc
      000100 4D                     347 	ld	c, l
      000101 44                     348 	ld	b, h
                                    349 ;c:/gbdk-2020/include/gb/gb.h:1248: itm->y=y, itm->x=x;
      000102 F8 04                  350 	ldhl	sp,	#4
      000104 3A                     351 	ld	a, (hl-)
      000105 02                     352 	ld	(bc), a
      000106 03                     353 	inc	bc
      000107 7E                     354 	ld	a, (hl)
      000108 02                     355 	ld	(bc), a
                                    356 ;sprites.c:23: move_sprite(character->spritids[8], x + 16, y + 16);
                                    357 ;sprites.c:24: }
      000109 E8 05                  358 	add	sp, #5
      00010B C9                     359 	ret
                                    360 ;sprites.c:26: void marioSetup()
                                    361 ;	---------------------------------
                                    362 ; Function marioSetup
                                    363 ; ---------------------------------
      00010C                        364 _marioSetup::
                                    365 ;sprites.c:28: mario.x = 35;
      00010C 01r00r00               366 	ld	bc, #_mario+0
      00010F 21r09r00               367 	ld	hl, #(_mario + 9)
      000112 36 23                  368 	ld	(hl), #0x23
                                    369 ;sprites.c:29: mario.y = 128;
      000114 21r0Ar00               370 	ld	hl, #(_mario + 10)
      000117 36 80                  371 	ld	(hl), #0x80
                                    372 ;sprites.c:30: mario.width = 24;
      000119 21r0Br00               373 	ld	hl, #(_mario + 11)
      00011C 36 18                  374 	ld	(hl), #0x18
                                    375 ;sprites.c:31: mario.height = 24;
      00011E 21r0Cr00               376 	ld	hl, #(_mario + 12)
      000121 36 18                  377 	ld	(hl), #0x18
                                    378 ;c:/gbdk-2020/include/gb/gb.h:1174: shadow_OAM[nb].tile=tile;
      000123 21r02r00               379 	ld	hl, #(_shadow_OAM + 2)
      000126 36 00                  380 	ld	(hl), #0x00
                                    381 ;sprites.c:34: mario.spritids[0] = 0;
      000128 AF                     382 	xor	a, a
      000129 02                     383 	ld	(bc), a
                                    384 ;c:/gbdk-2020/include/gb/gb.h:1174: shadow_OAM[nb].tile=tile;
      00012A 21r06r00               385 	ld	hl, #(_shadow_OAM + 6)
      00012D 36 01                  386 	ld	(hl), #0x01
                                    387 ;sprites.c:36: mario.spritids[1] = 1;
      00012F 21r01r00               388 	ld	hl, #(_mario + 1)
      000132 36 01                  389 	ld	(hl), #0x01
                                    390 ;c:/gbdk-2020/include/gb/gb.h:1174: shadow_OAM[nb].tile=tile;
      000134 21r0Ar00               391 	ld	hl, #(_shadow_OAM + 10)
      000137 36 02                  392 	ld	(hl), #0x02
                                    393 ;sprites.c:38: mario.spritids[2] = 2;
      000139 21r02r00               394 	ld	hl, #(_mario + 2)
      00013C 36 02                  395 	ld	(hl), #0x02
                                    396 ;c:/gbdk-2020/include/gb/gb.h:1174: shadow_OAM[nb].tile=tile;
      00013E 21r0Er00               397 	ld	hl, #(_shadow_OAM + 14)
      000141 36 03                  398 	ld	(hl), #0x03
                                    399 ;sprites.c:40: mario.spritids[3] = 3;
      000143 21r03r00               400 	ld	hl, #(_mario + 3)
      000146 36 03                  401 	ld	(hl), #0x03
                                    402 ;c:/gbdk-2020/include/gb/gb.h:1174: shadow_OAM[nb].tile=tile;
      000148 21r12r00               403 	ld	hl, #(_shadow_OAM + 18)
      00014B 36 04                  404 	ld	(hl), #0x04
                                    405 ;sprites.c:42: mario.spritids[4] = 4;
      00014D 21r04r00               406 	ld	hl, #(_mario + 4)
      000150 36 04                  407 	ld	(hl), #0x04
                                    408 ;c:/gbdk-2020/include/gb/gb.h:1174: shadow_OAM[nb].tile=tile;
      000152 21r16r00               409 	ld	hl, #(_shadow_OAM + 22)
      000155 36 05                  410 	ld	(hl), #0x05
                                    411 ;sprites.c:44: mario.spritids[5] = 5;
      000157 21r05r00               412 	ld	hl, #(_mario + 5)
      00015A 36 05                  413 	ld	(hl), #0x05
                                    414 ;c:/gbdk-2020/include/gb/gb.h:1174: shadow_OAM[nb].tile=tile;
      00015C 21r1Ar00               415 	ld	hl, #(_shadow_OAM + 26)
      00015F 36 06                  416 	ld	(hl), #0x06
                                    417 ;sprites.c:46: mario.spritids[6] = 6;
      000161 21r06r00               418 	ld	hl, #(_mario + 6)
      000164 36 06                  419 	ld	(hl), #0x06
                                    420 ;c:/gbdk-2020/include/gb/gb.h:1174: shadow_OAM[nb].tile=tile;
      000166 21r1Er00               421 	ld	hl, #(_shadow_OAM + 30)
      000169 36 07                  422 	ld	(hl), #0x07
                                    423 ;sprites.c:48: mario.spritids[7] = 7;
      00016B 21r07r00               424 	ld	hl, #(_mario + 7)
      00016E 36 07                  425 	ld	(hl), #0x07
                                    426 ;c:/gbdk-2020/include/gb/gb.h:1174: shadow_OAM[nb].tile=tile;
      000170 21r22r00               427 	ld	hl, #(_shadow_OAM + 34)
      000173 36 08                  428 	ld	(hl), #0x08
                                    429 ;sprites.c:50: mario.spritids[8] = 8;
      000175 21r08r00               430 	ld	hl, #(_mario + 8)
      000178 36 08                  431 	ld	(hl), #0x08
                                    432 ;sprites.c:52: moveMario(&mario, mario.x, mario.y); /* move mario */
      00017A FAr0Ar00               433 	ld	a, (#(_mario + 10) + 0)
      00017D 21r09r00               434 	ld	hl, #(_mario + 9)
      000180 66                     435 	ld	h, (hl)
                                    436 ;	spillPairReg hl
      000181 F5                     437 	push	af
      000182 33                     438 	inc	sp
      000183 E5                     439 	push	hl
      000184 33                     440 	inc	sp
      000185 C5                     441 	push	bc
      000186 CDr00r00               442 	call	_moveMario
      000189 E8 04                  443 	add	sp, #4
                                    444 ;sprites.c:53: }
      00018B C9                     445 	ret
                                    446 ;sprites.c:56: UBYTE canEntityMove(uint8_t newx, uint8_t newy, const char blankmap)
                                    447 ;	---------------------------------
                                    448 ; Function canEntityMove
                                    449 ; ---------------------------------
      00018C                        450 _canEntityMove::
      00018C 3B                     451 	dec	sp
      00018D 3B                     452 	dec	sp
                                    453 ;sprites.c:61: indexTlx = (newx) / 8;
      00018E F8 04                  454 	ldhl	sp,	#4
      000190 4E                     455 	ld	c, (hl)
      000191 06 00                  456 	ld	b, #0x00
      000193 69                     457 	ld	l, c
                                    458 ;	spillPairReg hl
                                    459 ;	spillPairReg hl
      000194 60                     460 	ld	h, b
                                    461 ;	spillPairReg hl
                                    462 ;	spillPairReg hl
      000195 CB 78                  463 	bit	7, b
      000197 28 04                  464 	jr	Z, 00103$
      000199 21 07 00               465 	ld	hl, #0x0007
      00019C 09                     466 	add	hl, bc
      00019D                        467 00103$:
      00019D 4D                     468 	ld	c, l
      00019E 44                     469 	ld	b, h
      00019F CB 28                  470 	sra	b
      0001A1 CB 19                  471 	rr	c
      0001A3 CB 28                  472 	sra	b
      0001A5 CB 19                  473 	rr	c
      0001A7 CB 28                  474 	sra	b
      0001A9 CB 19                  475 	rr	c
      0001AB 33                     476 	inc	sp
      0001AC 33                     477 	inc	sp
      0001AD C5                     478 	push	bc
                                    479 ;sprites.c:62: indexTly = (newy) / 8;
      0001AE F8 05                  480 	ldhl	sp,	#5
      0001B0 4E                     481 	ld	c, (hl)
      0001B1 06 00                  482 	ld	b, #0x00
      0001B3 69                     483 	ld	l, c
                                    484 ;	spillPairReg hl
                                    485 ;	spillPairReg hl
      0001B4 60                     486 	ld	h, b
                                    487 ;	spillPairReg hl
                                    488 ;	spillPairReg hl
      0001B5 CB 78                  489 	bit	7, b
      0001B7 28 04                  490 	jr	Z, 00104$
      0001B9 21 07 00               491 	ld	hl, #0x0007
      0001BC 09                     492 	add	hl, bc
      0001BD                        493 00104$:
      0001BD CB 2C                  494 	sra	h
      0001BF CB 1D                  495 	rr	l
      0001C1 CB 2C                  496 	sra	h
      0001C3 CB 1D                  497 	rr	l
      0001C5 CB 2C                  498 	sra	h
      0001C7 CB 1D                  499 	rr	l
                                    500 ;sprites.c:63: tileindexTL = 20 * indexTly + indexTlx;
      0001C9 4D                     501 	ld	c, l
      0001CA 44                     502 	ld	b, h
      0001CB 29                     503 	add	hl, hl
      0001CC 29                     504 	add	hl, hl
      0001CD 09                     505 	add	hl, bc
      0001CE 29                     506 	add	hl, hl
      0001CF 29                     507 	add	hl, hl
      0001D0 4D                     508 	ld	c, l
      0001D1 44                     509 	ld	b, h
      0001D2 E1                     510 	pop	hl
      0001D3 E5                     511 	push	hl
      0001D4 09                     512 	add	hl, bc
                                    513 ;sprites.c:65: result = map[tileindexTL] == blankmap;
      0001D5 01r00r00               514 	ld	bc,#_map
      0001D8 09                     515 	add	hl,bc
      0001D9 4E                     516 	ld	c, (hl)
      0001DA 06 00                  517 	ld	b, #0x00
      0001DC F8 06                  518 	ldhl	sp,	#6
      0001DE 7E                     519 	ld	a, (hl)
      0001DF 5F                     520 	ld	e, a
      0001E0 07                     521 	rlca
      0001E1 9F                     522 	sbc	a, a
      0001E2 57                     523 	ld	d, a
      0001E3 7B                     524 	ld	a, e
      0001E4 91                     525 	sub	a, c
      0001E5 20 06                  526 	jr	NZ, 00115$
      0001E7 7A                     527 	ld	a, d
      0001E8 90                     528 	sub	a, b
      0001E9 3E 01                  529 	ld	a, #0x01
      0001EB 28 01                  530 	jr	Z, 00116$
      0001ED                        531 00115$:
      0001ED AF                     532 	xor	a, a
      0001EE                        533 00116$:
                                    534 ;sprites.c:66: return result;
      0001EE 5F                     535 	ld	e, a
                                    536 ;sprites.c:67: }
      0001EF 33                     537 	inc	sp
      0001F0 33                     538 	inc	sp
      0001F1 C9                     539 	ret
                                    540 ;sprites.c:70: void marioMovement()
                                    541 ;	---------------------------------
                                    542 ; Function marioMovement
                                    543 ; ---------------------------------
      0001F2                        544 _marioMovement::
                                    545 ;sprites.c:73: if(joypad() & J_LEFT)
      0001F2 CDr00r00               546 	call	_joypad
      0001F5 CB 4B                  547 	bit	1, e
      0001F7 28 31                  548 	jr	Z, 00104$
                                    549 ;sprites.c:75: if(canEntityMove(mario.x-8, mario.y, 0x24))
      0001F9 21r0Ar00               550 	ld	hl, #(_mario + 10)
      0001FC 66                     551 	ld	h, (hl)
                                    552 ;	spillPairReg hl
      0001FD 01r09r00               553 	ld	bc, #_mario + 9
      000200 0A                     554 	ld	a, (bc)
      000201 C6 F8                  555 	add	a, #0xf8
      000203 57                     556 	ld	d, a
      000204 C5                     557 	push	bc
      000205 3E 24                  558 	ld	a, #0x24
      000207 F5                     559 	push	af
      000208 33                     560 	inc	sp
      000209 6A                     561 	ld	l, d
      00020A E5                     562 	push	hl
      00020B CDr8Cr01               563 	call	_canEntityMove
      00020E E8 03                  564 	add	sp, #3
      000210 7B                     565 	ld	a, e
      000211 C1                     566 	pop	bc
      000212 B7                     567 	or	a, a
      000213 28 15                  568 	jr	Z, 00104$
                                    569 ;sprites.c:77: mario.x -= 1;
      000215 0A                     570 	ld	a, (bc)
      000216 3D                     571 	dec	a
      000217 02                     572 	ld	(bc), a
                                    573 ;sprites.c:78: moveMario(&mario, mario.x, mario.y);
      000218 21r0Ar00               574 	ld	hl, #(_mario + 10)
      00021B 66                     575 	ld	h, (hl)
                                    576 ;	spillPairReg hl
      00021C 0A                     577 	ld	a, (bc)
      00021D E5                     578 	push	hl
      00021E 33                     579 	inc	sp
      00021F F5                     580 	push	af
      000220 33                     581 	inc	sp
      000221 11r00r00               582 	ld	de, #_mario
      000224 D5                     583 	push	de
      000225 CDr00r00               584 	call	_moveMario
      000228 E8 04                  585 	add	sp, #4
      00022A                        586 00104$:
                                    587 ;sprites.c:83: if(joypad() & J_RIGHT)
      00022A CDr00r00               588 	call	_joypad
      00022D 7B                     589 	ld	a, e
      00022E 0F                     590 	rrca
      00022F 30 31                  591 	jr	NC, 00108$
                                    592 ;sprites.c:85: if(canEntityMove(mario.x+8, mario.y, 0x24))
      000231 21r0Ar00               593 	ld	hl, #(_mario + 10)
      000234 66                     594 	ld	h, (hl)
                                    595 ;	spillPairReg hl
      000235 01r09r00               596 	ld	bc, #_mario + 9
      000238 0A                     597 	ld	a, (bc)
      000239 C6 08                  598 	add	a, #0x08
      00023B 57                     599 	ld	d, a
      00023C C5                     600 	push	bc
      00023D 3E 24                  601 	ld	a, #0x24
      00023F F5                     602 	push	af
      000240 33                     603 	inc	sp
      000241 6A                     604 	ld	l, d
      000242 E5                     605 	push	hl
      000243 CDr8Cr01               606 	call	_canEntityMove
      000246 E8 03                  607 	add	sp, #3
      000248 7B                     608 	ld	a, e
      000249 C1                     609 	pop	bc
      00024A B7                     610 	or	a, a
      00024B 28 15                  611 	jr	Z, 00108$
                                    612 ;sprites.c:87: mario.x += 1;
      00024D 0A                     613 	ld	a, (bc)
      00024E 3C                     614 	inc	a
      00024F 02                     615 	ld	(bc), a
                                    616 ;sprites.c:88: moveMario(&mario, mario.x, mario.y);
      000250 21r0Ar00               617 	ld	hl, #(_mario + 10)
      000253 66                     618 	ld	h, (hl)
                                    619 ;	spillPairReg hl
      000254 0A                     620 	ld	a, (bc)
      000255 E5                     621 	push	hl
      000256 33                     622 	inc	sp
      000257 F5                     623 	push	af
      000258 33                     624 	inc	sp
      000259 11r00r00               625 	ld	de, #_mario
      00025C D5                     626 	push	de
      00025D CDr00r00               627 	call	_moveMario
      000260 E8 04                  628 	add	sp, #4
      000262                        629 00108$:
                                    630 ;sprites.c:93: if(joypad() & J_B)
      000262 CDr00r00               631 	call	_joypad
      000265 CB 6B                  632 	bit	5, e
      000267 28 31                  633 	jr	Z, 00112$
                                    634 ;sprites.c:95: if(canEntityMove(mario.x, mario.y-8, 0x24))
      000269 21r0Ar00               635 	ld	hl, #_mario + 10
      00026C 7E                     636 	ld	a, (hl)
      00026D C6 F8                  637 	add	a, #0xf8
      00026F 47                     638 	ld	b, a
      000270 11r09r00               639 	ld	de, #_mario + 9
      000273 1A                     640 	ld	a, (de)
      000274 4F                     641 	ld	c, a
      000275 E5                     642 	push	hl
      000276 D5                     643 	push	de
      000277 3E 24                  644 	ld	a, #0x24
      000279 F5                     645 	push	af
      00027A 33                     646 	inc	sp
      00027B C5                     647 	push	bc
      00027C CDr8Cr01               648 	call	_canEntityMove
      00027F E8 03                  649 	add	sp, #3
      000281 7B                     650 	ld	a, e
      000282 D1                     651 	pop	de
      000283 E1                     652 	pop	hl
      000284 B7                     653 	or	a, a
      000285 28 13                  654 	jr	Z, 00112$
                                    655 ;sprites.c:97: mario.y -= 5;
      000287 7E                     656 	ld	a, (hl)
      000288 C6 FB                  657 	add	a, #0xfb
      00028A 77                     658 	ld	(hl), a
                                    659 ;sprites.c:98: moveMario(&mario, mario.x, mario.y);
      00028B 46                     660 	ld	b, (hl)
      00028C 1A                     661 	ld	a, (de)
      00028D C5                     662 	push	bc
      00028E 33                     663 	inc	sp
      00028F F5                     664 	push	af
      000290 33                     665 	inc	sp
      000291 11r00r00               666 	ld	de, #_mario
      000294 D5                     667 	push	de
      000295 CDr00r00               668 	call	_moveMario
      000298 E8 04                  669 	add	sp, #4
      00029A                        670 00112$:
                                    671 ;sprites.c:103: if(mario.x <= 0)
      00029A 01r09r00               672 	ld	bc, #_mario + 9
      00029D 0A                     673 	ld	a, (bc)
      00029E B7                     674 	or	a, a
      00029F 20 05                  675 	jr	NZ, 00116$
                                    676 ;sprites.c:105: mario.x = 160;
      0002A1 3E A0                  677 	ld	a, #0xa0
      0002A3 02                     678 	ld	(bc), a
      0002A4 18 06                  679 	jr	00117$
      0002A6                        680 00116$:
                                    681 ;sprites.c:106: } else if(mario.x >= 160)
      0002A6 D6 A0                  682 	sub	a, #0xa0
      0002A8 38 02                  683 	jr	C, 00117$
                                    684 ;sprites.c:108: mario.x = 0;
      0002AA AF                     685 	xor	a, a
      0002AB 02                     686 	ld	(bc), a
      0002AC                        687 00117$:
                                    688 ;sprites.c:112: if(canEntityMove(mario.x, mario.y+8, 0x24))
      0002AC 21r0Ar00               689 	ld	hl, #_mario + 10
      0002AF 7E                     690 	ld	a, (hl)
      0002B0 C6 08                  691 	add	a, #0x08
      0002B2 57                     692 	ld	d, a
      0002B3 0A                     693 	ld	a, (bc)
      0002B4 5F                     694 	ld	e, a
      0002B5 E5                     695 	push	hl
      0002B6 C5                     696 	push	bc
      0002B7 3E 24                  697 	ld	a, #0x24
      0002B9 F5                     698 	push	af
      0002BA 33                     699 	inc	sp
      0002BB D5                     700 	push	de
      0002BC CDr8Cr01               701 	call	_canEntityMove
      0002BF E8 03                  702 	add	sp, #3
      0002C1 7B                     703 	ld	a, e
      0002C2 C1                     704 	pop	bc
      0002C3 E1                     705 	pop	hl
      0002C4 B7                     706 	or	a, a
      0002C5 28 14                  707 	jr	Z, 00119$
                                    708 ;sprites.c:114: mario.y += 2;
      0002C7 7E                     709 	ld	a, (hl)
      0002C8 C6 02                  710 	add	a, #0x02
      0002CA 77                     711 	ld	(hl), a
                                    712 ;sprites.c:115: moveMario(&mario, mario.x, mario.y);
      0002CB 5E                     713 	ld	e, (hl)
      0002CC 0A                     714 	ld	a, (bc)
      0002CD 63                     715 	ld	h, e
                                    716 ;	spillPairReg hl
                                    717 ;	spillPairReg hl
      0002CE E5                     718 	push	hl
      0002CF 33                     719 	inc	sp
      0002D0 F5                     720 	push	af
      0002D1 33                     721 	inc	sp
      0002D2 11r00r00               722 	ld	de, #_mario
      0002D5 D5                     723 	push	de
      0002D6 CDr00r00               724 	call	_moveMario
      0002D9 E8 04                  725 	add	sp, #4
      0002DB                        726 00119$:
                                    727 ;sprites.c:117: delay(10);
      0002DB 11 0A 00               728 	ld	de, #0x000a
      0002DE D5                     729 	push	de
      0002DF CDr00r00               730 	call	_delay
      0002E2 E1                     731 	pop	hl
                                    732 ;sprites.c:118: }
      0002E3 C9                     733 	ret
                                    734 ;enemysprites.c:11: void enemySetup()
                                    735 ;	---------------------------------
                                    736 ; Function enemySetup
                                    737 ; ---------------------------------
      0002E4                        738 _enemySetup::
      0002E4 E8 FC                  739 	add	sp, #-4
                                    740 ;enemysprites.c:13: initarand(46);
      0002E6 11 2E 00               741 	ld	de, #0x002e
      0002E9 D5                     742 	push	de
      0002EA CDr00r00               743 	call	_initarand
      0002ED E1                     744 	pop	hl
                                    745 ;enemysprites.c:14: for(uint8_t i=0; i<3; i++)
      0002EE F8 03                  746 	ldhl	sp,	#3
      0002F0 36 00                  747 	ld	(hl), #0x00
      0002F2                        748 00112$:
      0002F2 F8 03                  749 	ldhl	sp,	#3
      0002F4 7E                     750 	ld	a, (hl)
      0002F5 D6 03                  751 	sub	a, #0x03
      0002F7 D2r95r03               752 	jp	NC, 00114$
                                    753 ;enemysprites.c:16: int pipe = rand() % 2;
      0002FA CDr00r00               754 	call	_rand
      0002FD 7B                     755 	ld	a, e
      0002FE 07                     756 	rlca
      0002FF 9F                     757 	sbc	a, a
      000300 01 02 00               758 	ld	bc, #0x0002
      000303 C5                     759 	push	bc
      000304 57                     760 	ld	d, a
      000305 D5                     761 	push	de
      000306 CDr00r00               762 	call	__modsint
      000309 E8 06                  763 	add	sp, #6
      00030B D5                     764 	push	de
                                    765 ;enemysprites.c:21: turtle[i].x = 0, turtle[i].y = 24;
      00030C F8 03                  766 	ldhl	sp,	#3
      00030E 4E                     767 	ld	c, (hl)
      00030F 06 00                  768 	ld	b, #0x00
                                    769 ;enemysprites.c:22: set_sprite_prop(9+i, S_PRIORITY);
                                    770 ;enemysprites.c:21: turtle[i].x = 0, turtle[i].y = 24;
                                    771 ;enemysprites.c:22: set_sprite_prop(9+i, S_PRIORITY);
      000311 3A                     772 	ld	a, (hl-)
      000312 CB 21                  773 	sla	c
      000314 CB 10                  774 	rl	b
      000316 C6 09                  775 	add	a, #0x09
      000318 77                     776 	ld	(hl), a
                                    777 ;enemysprites.c:19: if(pipe == 0)
      000319 7A                     778 	ld	a, d
      00031A B3                     779 	or	a, e
      00031B 20 1A                  780 	jr	NZ, 00104$
                                    781 ;enemysprites.c:21: turtle[i].x = 0, turtle[i].y = 24;
      00031D 21r0Dr00               782 	ld	hl, #_turtle
      000320 09                     783 	add	hl, bc
      000321 AF                     784 	xor	a, a
      000322 22                     785 	ld	(hl+), a
      000323 36 18                  786 	ld	(hl), #0x18
                                    787 ;enemysprites.c:22: set_sprite_prop(9+i, S_PRIORITY);
      000325 F8 02                  788 	ldhl	sp,	#2
                                    789 ;c:/gbdk-2020/include/gb/gb.h:1220: shadow_OAM[nb].prop=prop;
      000327 6E                     790 	ld	l, (hl)
      000328 01r00r00               791 	ld	bc, #_shadow_OAM+0
                                    792 ;	spillPairReg hl
                                    793 ;	spillPairReg hl
      00032B 26 00                  794 	ld	h, #0x00
                                    795 ;	spillPairReg hl
                                    796 ;	spillPairReg hl
      00032D 29                     797 	add	hl, hl
      00032E 29                     798 	add	hl, hl
      00032F 09                     799 	add	hl, bc
      000330 23                     800 	inc	hl
      000331 23                     801 	inc	hl
      000332 23                     802 	inc	hl
      000333 36 80                  803 	ld	(hl), #0x80
                                    804 ;enemysprites.c:22: set_sprite_prop(9+i, S_PRIORITY);
      000335 18 20                  805 	jr	00105$
      000337                        806 00104$:
                                    807 ;enemysprites.c:23: } else if(pipe == 1)
      000337 F8 00                  808 	ldhl	sp,	#0
      000339 2A                     809 	ld	a, (hl+)
      00033A 3D                     810 	dec	a
      00033B B6                     811 	or	a, (hl)
      00033C 20 19                  812 	jr	NZ, 00105$
                                    813 ;enemysprites.c:25: turtle[i].x = 100, turtle[i].y = 24;
      00033E 21r0Dr00               814 	ld	hl, #_turtle
      000341 09                     815 	add	hl, bc
      000342 3E 64                  816 	ld	a, #0x64
      000344 22                     817 	ld	(hl+), a
      000345 36 18                  818 	ld	(hl), #0x18
                                    819 ;enemysprites.c:26: set_sprite_prop(9+i, S_FLIPX);
      000347 F8 02                  820 	ldhl	sp,	#2
                                    821 ;c:/gbdk-2020/include/gb/gb.h:1220: shadow_OAM[nb].prop=prop;
      000349 6E                     822 	ld	l, (hl)
      00034A 11r00r00               823 	ld	de, #_shadow_OAM+0
                                    824 ;	spillPairReg hl
                                    825 ;	spillPairReg hl
      00034D 26 00                  826 	ld	h, #0x00
                                    827 ;	spillPairReg hl
                                    828 ;	spillPairReg hl
      00034F 29                     829 	add	hl, hl
      000350 29                     830 	add	hl, hl
      000351 19                     831 	add	hl, de
      000352 23                     832 	inc	hl
      000353 23                     833 	inc	hl
      000354 23                     834 	inc	hl
      000355 36 20                  835 	ld	(hl), #0x20
                                    836 ;enemysprites.c:26: set_sprite_prop(9+i, S_FLIPX);
      000357                        837 00105$:
                                    838 ;enemysprites.c:29: set_sprite_tile(9+i, 9); /* set all turtle tiles*/
      000357 F8 03                  839 	ldhl	sp,	#3
      000359 7E                     840 	ld	a, (hl)
      00035A C6 09                  841 	add	a, #0x09
      00035C 4F                     842 	ld	c, a
                                    843 ;c:/gbdk-2020/include/gb/gb.h:1174: shadow_OAM[nb].tile=tile;
      00035D 69                     844 	ld	l, c
                                    845 ;	spillPairReg hl
                                    846 ;	spillPairReg hl
      00035E 26 00                  847 	ld	h, #0x00
                                    848 ;	spillPairReg hl
                                    849 ;	spillPairReg hl
      000360 29                     850 	add	hl, hl
      000361 29                     851 	add	hl, hl
      000362 11r00r00               852 	ld	de, #_shadow_OAM
      000365 19                     853 	add	hl, de
      000366 23                     854 	inc	hl
      000367 23                     855 	inc	hl
      000368 36 09                  856 	ld	(hl), #0x09
                                    857 ;enemysprites.c:30: move_sprite(9+i, turtle[i].x, turtle[i].y);
      00036A F8 03                  858 	ldhl	sp,	#3
      00036C 6E                     859 	ld	l, (hl)
      00036D 26 00                  860 	ld	h, #0x00
      00036F 29                     861 	add	hl, hl
      000370 11r0Dr00               862 	ld	de, #_turtle
      000373 19                     863 	add	hl, de
      000374 5D                     864 	ld	e, l
      000375 54                     865 	ld	d, h
      000376 13                     866 	inc	de
      000377 1A                     867 	ld	a, (de)
      000378 5F                     868 	ld	e, a
      000379 7E                     869 	ld	a, (hl)
      00037A F8 02                  870 	ldhl	sp,	#2
      00037C 77                     871 	ld	(hl), a
                                    872 ;c:/gbdk-2020/include/gb/gb.h:1247: OAM_item_t * itm = &shadow_OAM[nb];
      00037D 69                     873 	ld	l, c
                                    874 ;	spillPairReg hl
                                    875 ;	spillPairReg hl
      00037E 26 00                  876 	ld	h, #0x00
                                    877 ;	spillPairReg hl
                                    878 ;	spillPairReg hl
      000380 29                     879 	add	hl, hl
      000381 29                     880 	add	hl, hl
      000382 7D                     881 	ld	a, l
      000383 C6r00                  882 	add	a, #<(_shadow_OAM)
      000385 4F                     883 	ld	c, a
      000386 7C                     884 	ld	a, h
      000387 CEs00                  885 	adc	a, #>(_shadow_OAM)
      000389 47                     886 	ld	b, a
                                    887 ;c:/gbdk-2020/include/gb/gb.h:1248: itm->y=y, itm->x=x;
      00038A 7B                     888 	ld	a, e
      00038B 02                     889 	ld	(bc), a
      00038C 03                     890 	inc	bc
      00038D F8 02                  891 	ldhl	sp,	#2
                                    892 ;enemysprites.c:14: for(uint8_t i=0; i<3; i++)
      00038F 2A                     893 	ld	a, (hl+)
      000390 02                     894 	ld	(bc), a
      000391 34                     895 	inc	(hl)
      000392 C3rF2r02               896 	jp	00112$
      000395                        897 00114$:
                                    898 ;enemysprites.c:32: }
      000395 E8 04                  899 	add	sp, #4
      000397 C9                     900 	ret
                                    901 ;enemysprites.c:35: void enemyMovement()
                                    902 ;	---------------------------------
                                    903 ; Function enemyMovement
                                    904 ; ---------------------------------
      000398                        905 _enemyMovement::
      000398 E8 FC                  906 	add	sp, #-4
                                    907 ;enemysprites.c:37: for(uint8_t i=0; i<3; i++)
      00039A 0E 00                  908 	ld	c, #0x00
      00039C                        909 00121$:
      00039C 79                     910 	ld	a, c
      00039D D6 03                  911 	sub	a, #0x03
      00039F D2rB8r04               912 	jp	NC, 00123$
                                    913 ;enemysprites.c:40: if(canEntityMove(turtle[i].x, turtle[i].y-8, 0x24))
      0003A2 69                     914 	ld	l, c
                                    915 ;	spillPairReg hl
                                    916 ;	spillPairReg hl
      0003A3 26 00                  917 	ld	h, #0x00
                                    918 ;	spillPairReg hl
                                    919 ;	spillPairReg hl
      0003A5 29                     920 	add	hl, hl
      0003A6 5D                     921 	ld	e, l
      0003A7 54                     922 	ld	d, h
      0003A8 21r0Dr00               923 	ld	hl, #_turtle
      0003AB 19                     924 	add	hl, de
      0003AC E5                     925 	push	hl
      0003AD 7D                     926 	ld	a, l
      0003AE F8 04                  927 	ldhl	sp,	#4
      0003B0 77                     928 	ld	(hl), a
      0003B1 E1                     929 	pop	hl
      0003B2 7C                     930 	ld	a, h
      0003B3 F8 03                  931 	ldhl	sp,	#3
      0003B5 32                     932 	ld	(hl-), a
      0003B6 2A                     933 	ld	a, (hl+)
      0003B7 5F                     934 	ld	e, a
      0003B8 56                     935 	ld	d, (hl)
      0003B9 6B                     936 	ld	l, e
      0003BA 62                     937 	ld	h, d
      0003BB 23                     938 	inc	hl
      0003BC 33                     939 	inc	sp
      0003BD 33                     940 	inc	sp
      0003BE 5D                     941 	ld	e, l
      0003BF 54                     942 	ld	d, h
      0003C0 D5                     943 	push	de
      0003C1 1A                     944 	ld	a, (de)
      0003C2 C6 F8                  945 	add	a, #0xf8
      0003C4 47                     946 	ld	b, a
      0003C5 F8 02                  947 	ldhl	sp,#2
      0003C7 2A                     948 	ld	a, (hl+)
      0003C8 5F                     949 	ld	e, a
      0003C9 56                     950 	ld	d, (hl)
      0003CA 1A                     951 	ld	a, (de)
      0003CB C5                     952 	push	bc
      0003CC 26 24                  953 	ld	h, #0x24
                                    954 ;	spillPairReg hl
                                    955 ;	spillPairReg hl
      0003CE 68                     956 	ld	l, b
      0003CF E5                     957 	push	hl
      0003D0 F5                     958 	push	af
      0003D1 33                     959 	inc	sp
      0003D2 CDr8Cr01               960 	call	_canEntityMove
      0003D5 E8 03                  961 	add	sp, #3
      0003D7 7B                     962 	ld	a, e
      0003D8 C1                     963 	pop	bc
      0003D9 B7                     964 	or	a, a
      0003DA 28 26                  965 	jr	Z, 00102$
                                    966 ;enemysprites.c:42: turtle[i].y++; /* gravity */
      0003DC D1                     967 	pop	de
      0003DD D5                     968 	push	de
      0003DE 1A                     969 	ld	a, (de)
      0003DF 47                     970 	ld	b, a
      0003E0 04                     971 	inc	b
      0003E1 E1                     972 	pop	hl
      0003E2 E5                     973 	push	hl
      0003E3 70                     974 	ld	(hl), b
                                    975 ;enemysprites.c:43: move_sprite(9+i, turtle[i].x, turtle[i].y);
      0003E4 F8 02                  976 	ldhl	sp,#2
      0003E6 2A                     977 	ld	a, (hl+)
      0003E7 5F                     978 	ld	e, a
      0003E8 56                     979 	ld	d, (hl)
      0003E9 1A                     980 	ld	a, (de)
      0003EA 77                     981 	ld	(hl), a
      0003EB 79                     982 	ld	a, c
      0003EC C6 09                  983 	add	a, #0x09
                                    984 ;c:/gbdk-2020/include/gb/gb.h:1247: OAM_item_t * itm = &shadow_OAM[nb];
      0003EE 6F                     985 	ld	l, a
                                    986 ;	spillPairReg hl
                                    987 ;	spillPairReg hl
      0003EF 26 00                  988 	ld	h, #0x00
                                    989 ;	spillPairReg hl
                                    990 ;	spillPairReg hl
      0003F1 29                     991 	add	hl, hl
      0003F2 29                     992 	add	hl, hl
      0003F3 5D                     993 	ld	e, l
      0003F4 54                     994 	ld	d, h
      0003F5 21r00r00               995 	ld	hl, #_shadow_OAM
      0003F8 19                     996 	add	hl, de
      0003F9 5D                     997 	ld	e, l
      0003FA 54                     998 	ld	d, h
                                    999 ;c:/gbdk-2020/include/gb/gb.h:1248: itm->y=y, itm->x=x;
      0003FB 78                    1000 	ld	a, b
      0003FC 12                    1001 	ld	(de), a
      0003FD 13                    1002 	inc	de
      0003FE F8 03                 1003 	ldhl	sp,	#3
      000400 7E                    1004 	ld	a, (hl)
      000401 12                    1005 	ld	(de), a
                                   1006 ;enemysprites.c:43: move_sprite(9+i, turtle[i].x, turtle[i].y);
      000402                       1007 00102$:
                                   1008 ;enemysprites.c:40: if(canEntityMove(turtle[i].x, turtle[i].y-8, 0x24))
      000402 69                    1009 	ld	l, c
                                   1010 ;	spillPairReg hl
                                   1011 ;	spillPairReg hl
      000403 26 00                 1012 	ld	h, #0x00
                                   1013 ;	spillPairReg hl
                                   1014 ;	spillPairReg hl
                                   1015 ;enemysprites.c:47: if(turtle[i].x <= 0)
      000405 29                    1016 	add	hl, hl
      000406 5D                    1017 	ld	e, l
      000407 54                    1018 	ld	d, h
      000408 21r0Dr00              1019 	ld	hl, #_turtle
      00040B 19                    1020 	add	hl, de
      00040C 33                    1021 	inc	sp
      00040D 33                    1022 	inc	sp
      00040E 5D                    1023 	ld	e, l
      00040F 54                    1024 	ld	d, h
      000410 D5                    1025 	push	de
      000411 1A                    1026 	ld	a, (de)
      000412 B7                    1027 	or	a, a
      000413 20 06                 1028 	jr	NZ, 00106$
                                   1029 ;enemysprites.c:49: turtle[i].x = 160;
      000415 E1                    1030 	pop	hl
      000416 E5                    1031 	push	hl
      000417 36 A0                 1032 	ld	(hl), #0xa0
      000419 18 08                 1033 	jr	00107$
      00041B                       1034 00106$:
                                   1035 ;enemysprites.c:50: } else if(turtle[i].x >= 160)
      00041B D6 A0                 1036 	sub	a, #0xa0
      00041D 38 04                 1037 	jr	C, 00107$
                                   1038 ;enemysprites.c:52: turtle[i].x = 0;
      00041F E1                    1039 	pop	hl
      000420 E5                    1040 	push	hl
      000421 36 00                 1041 	ld	(hl), #0x00
      000423                       1042 00107$:
                                   1043 ;enemysprites.c:56: if(canEntityMove(turtle[i].x, turtle[i].y-16, 0x27))
      000423 D1                    1044 	pop	de
      000424 D5                    1045 	push	de
      000425 6B                    1046 	ld	l, e
      000426 62                    1047 	ld	h, d
      000427 23                    1048 	inc	hl
      000428 E5                    1049 	push	hl
      000429 7D                    1050 	ld	a, l
      00042A F8 04                 1051 	ldhl	sp,	#4
      00042C 77                    1052 	ld	(hl), a
      00042D E1                    1053 	pop	hl
      00042E 7C                    1054 	ld	a, h
      00042F F8 03                 1055 	ldhl	sp,	#3
      000431 32                    1056 	ld	(hl-), a
      000432 2A                    1057 	ld	a, (hl+)
      000433 5F                    1058 	ld	e, a
      000434 56                    1059 	ld	d, (hl)
      000435 1A                    1060 	ld	a, (de)
      000436 C6 F0                 1061 	add	a, #0xf0
      000438 47                    1062 	ld	b, a
      000439 D1                    1063 	pop	de
      00043A D5                    1064 	push	de
      00043B 1A                    1065 	ld	a, (de)
      00043C C5                    1066 	push	bc
      00043D 26 27                 1067 	ld	h, #0x27
                                   1068 ;	spillPairReg hl
                                   1069 ;	spillPairReg hl
      00043F 68                    1070 	ld	l, b
      000440 E5                    1071 	push	hl
      000441 F5                    1072 	push	af
      000442 33                    1073 	inc	sp
      000443 CDr8Cr01              1074 	call	_canEntityMove
      000446 E8 03                 1075 	add	sp, #3
      000448 7B                    1076 	ld	a, e
      000449 C1                    1077 	pop	bc
      00044A B7                    1078 	or	a, a
      00044B 28 0B                 1079 	jr	Z, 00109$
                                   1080 ;enemysprites.c:58: turtle[i].x = 0;
      00044D E1                    1081 	pop	hl
      00044E E5                    1082 	push	hl
      00044F 36 00                 1083 	ld	(hl), #0x00
                                   1084 ;enemysprites.c:59: turtle[i].y = 24;
      000451 F8 02                 1085 	ldhl	sp,	#2
      000453 2A                    1086 	ld	a,	(hl+)
      000454 66                    1087 	ld	h, (hl)
      000455 6F                    1088 	ld	l, a
      000456 36 18                 1089 	ld	(hl), #0x18
      000458                       1090 00109$:
                                   1091 ;enemysprites.c:62: if(get_sprite_prop(9+i) == S_PRIORITY)
      000458 79                    1092 	ld	a, c
      000459 C6 09                 1093 	add	a, #0x09
      00045B 5F                    1094 	ld	e, a
      00045C 43                    1095 	ld	b, e
                                   1096 ;c:/gbdk-2020/include/gb/gb.h:1230: return shadow_OAM[nb].prop;
      00045D 26 00                 1097 	ld	h, #0x00
                                   1098 ;	spillPairReg hl
                                   1099 ;	spillPairReg hl
      00045F 68                    1100 	ld	l, b
      000460 29                    1101 	add	hl, hl
      000461 29                    1102 	add	hl, hl
      000462 D5                    1103 	push	de
      000463 11r00r00              1104 	ld	de, #_shadow_OAM
      000466 19                    1105 	add	hl, de
      000467 23                    1106 	inc	hl
      000468 23                    1107 	inc	hl
      000469 23                    1108 	inc	hl
      00046A D1                    1109 	pop	de
      00046B 7E                    1110 	ld	a, (hl)
                                   1111 ;enemysprites.c:62: if(get_sprite_prop(9+i) == S_PRIORITY)
      00046C D6 80                 1112 	sub	a, #0x80
      00046E 20 0C                 1113 	jr	NZ, 00113$
                                   1114 ;enemysprites.c:40: if(canEntityMove(turtle[i].x, turtle[i].y-8, 0x24))
      000470 69                    1115 	ld	l, c
                                   1116 ;	spillPairReg hl
                                   1117 ;	spillPairReg hl
      000471 26 00                 1118 	ld	h, #0x00
                                   1119 ;	spillPairReg hl
                                   1120 ;	spillPairReg hl
                                   1121 ;enemysprites.c:47: if(turtle[i].x <= 0)
      000473 29                    1122 	add	hl, hl
      000474 11r0Dr00              1123 	ld	de, #_turtle
      000477 19                    1124 	add	hl, de
                                   1125 ;enemysprites.c:64: turtle[i].x++;
      000478 34                    1126 	inc	(hl)
      000479 7E                    1127 	ld	a, (hl)
      00047A 18 1E                 1128 	jr	00114$
      00047C                       1129 00113$:
                                   1130 ;enemysprites.c:65: } else if(get_sprite_prop(9+i) == S_FLIPX)
                                   1131 ;c:/gbdk-2020/include/gb/gb.h:1230: return shadow_OAM[nb].prop;
      00047C 6B                    1132 	ld	l, e
                                   1133 ;	spillPairReg hl
                                   1134 ;	spillPairReg hl
      00047D 26 00                 1135 	ld	h, #0x00
                                   1136 ;	spillPairReg hl
                                   1137 ;	spillPairReg hl
      00047F 29                    1138 	add	hl, hl
      000480 29                    1139 	add	hl, hl
      000481 11r00r00              1140 	ld	de, #_shadow_OAM
      000484 19                    1141 	add	hl, de
      000485 23                    1142 	inc	hl
      000486 23                    1143 	inc	hl
      000487 23                    1144 	inc	hl
      000488 5E                    1145 	ld	e, (hl)
                                   1146 ;enemysprites.c:40: if(canEntityMove(turtle[i].x, turtle[i].y-8, 0x24))
      000489 69                    1147 	ld	l, c
                                   1148 ;	spillPairReg hl
                                   1149 ;	spillPairReg hl
      00048A 26 00                 1150 	ld	h, #0x00
                                   1151 ;	spillPairReg hl
                                   1152 ;	spillPairReg hl
                                   1153 ;enemysprites.c:47: if(turtle[i].x <= 0)
      00048C 29                    1154 	add	hl, hl
      00048D D5                    1155 	push	de
      00048E 11r0Dr00              1156 	ld	de, #_turtle
      000491 19                    1157 	add	hl, de
      000492 D1                    1158 	pop	de
                                   1159 ;enemysprites.c:65: } else if(get_sprite_prop(9+i) == S_FLIPX)
      000493 7B                    1160 	ld	a, e
      000494 D6 20                 1161 	sub	a, #0x20
      000496 20 02                 1162 	jr	NZ, 00114$
                                   1163 ;enemysprites.c:67: turtle[i].x--;
      000498 35                    1164 	dec	(hl)
      000499 7E                    1165 	ld	a, (hl)
      00049A                       1166 00114$:
                                   1167 ;enemysprites.c:69: move_sprite(9+i, turtle[i].x, turtle[i].y);
      00049A 5D                    1168 	ld	e, l
      00049B 54                    1169 	ld	d, h
      00049C 13                    1170 	inc	de
      00049D 1A                    1171 	ld	a, (de)
      00049E 47                    1172 	ld	b, a
      00049F 5E                    1173 	ld	e, (hl)
      0004A0 79                    1174 	ld	a, c
      0004A1 C6 09                 1175 	add	a, #0x09
      0004A3 57                    1176 	ld	d, a
                                   1177 ;c:/gbdk-2020/include/gb/gb.h:1247: OAM_item_t * itm = &shadow_OAM[nb];
      0004A4 26 00                 1178 	ld	h, #0x00
                                   1179 ;	spillPairReg hl
                                   1180 ;	spillPairReg hl
      0004A6 6A                    1181 	ld	l, d
      0004A7 29                    1182 	add	hl, hl
      0004A8 29                    1183 	add	hl, hl
      0004A9 3Er00                 1184 	ld	a, #<(_shadow_OAM)
      0004AB 85                    1185 	add	a, l
      0004AC 6F                    1186 	ld	l, a
                                   1187 ;	spillPairReg hl
                                   1188 ;	spillPairReg hl
      0004AD 3Es00                 1189 	ld	a, #>(_shadow_OAM)
      0004AF 8C                    1190 	adc	a, h
      0004B0 67                    1191 	ld	h, a
                                   1192 ;	spillPairReg hl
                                   1193 ;	spillPairReg hl
                                   1194 ;c:/gbdk-2020/include/gb/gb.h:1248: itm->y=y, itm->x=x;
      0004B1 78                    1195 	ld	a, b
      0004B2 22                    1196 	ld	(hl+), a
      0004B3 73                    1197 	ld	(hl), e
                                   1198 ;enemysprites.c:37: for(uint8_t i=0; i<3; i++)
      0004B4 0C                    1199 	inc	c
      0004B5 C3r9Cr03              1200 	jp	00121$
      0004B8                       1201 00123$:
                                   1202 ;enemysprites.c:71: }
      0004B8 E8 04                 1203 	add	sp, #4
      0004BA C9                    1204 	ret
                                   1205 ;main.c:13: void main()
                                   1206 ;	---------------------------------
                                   1207 ; Function main
                                   1208 ; ---------------------------------
      0004BB                       1209 _main::
                                   1210 ;main.c:17: font_init();
      0004BB CDr00r00              1211 	call	_font_init
                                   1212 ;main.c:18: min_font = font_load(font_min);
      0004BE 11r00r00              1213 	ld	de, #_font_min
      0004C1 D5                    1214 	push	de
      0004C2 CDr00r00              1215 	call	_font_load
      0004C5 E1                    1216 	pop	hl
                                   1217 ;main.c:19: font_set(min_font);
      0004C6 D5                    1218 	push	de
      0004C7 CDr00r00              1219 	call	_font_set
      0004CA E1                    1220 	pop	hl
                                   1221 ;main.c:21: set_win_tiles(0, 0, 6, 1, scoreboard); /* create score board */
      0004CB 11r68r01              1222 	ld	de, #_scoreboard
      0004CE D5                    1223 	push	de
      0004CF 21 06 01              1224 	ld	hl, #0x106
      0004D2 E5                    1225 	push	hl
      0004D3 AF                    1226 	xor	a, a
      0004D4 0F                    1227 	rrca
      0004D5 F5                    1228 	push	af
      0004D6 CDr00r00              1229 	call	_set_win_tiles
      0004D9 E8 06                 1230 	add	sp, #6
                                   1231 ;c:/gbdk-2020/include/gb/gb.h:1044: WX_REG=x, WY_REG=y;
      0004DB 3E 78                 1232 	ld	a, #0x78
      0004DD E0r00                 1233 	ldh	(_WX_REG + 0), a
      0004DF 3E 88                 1234 	ld	a, #0x88
      0004E1 E0r00                 1235 	ldh	(_WY_REG + 0), a
                                   1236 ;main.c:24: set_sprite_data(0, 9, player);
      0004E3 11r6Er01              1237 	ld	de, #_player
      0004E6 D5                    1238 	push	de
      0004E7 21 00 09              1239 	ld	hl, #0x900
      0004EA E5                    1240 	push	hl
      0004EB CDr00r00              1241 	call	_set_sprite_data
      0004EE E8 04                 1242 	add	sp, #4
                                   1243 ;main.c:25: marioSetup(); /* load mario */
      0004F0 CDr0Cr01              1244 	call	_marioSetup
                                   1245 ;main.c:26: set_sprite_data(9, 1, enemy); /* load enemy */
      0004F3 11r5Er02              1246 	ld	de, #_enemy
      0004F6 D5                    1247 	push	de
      0004F7 21 09 01              1248 	ld	hl, #0x109
      0004FA E5                    1249 	push	hl
      0004FB CDr00r00              1250 	call	_set_sprite_data
      0004FE E8 04                 1251 	add	sp, #4
                                   1252 ;main.c:27: enemySetup();
      000500 CDrE4r02              1253 	call	_enemySetup
                                   1254 ;main.c:29: set_bkg_data(36, 4, tile); /* load tiles for map */
      000503 11r0Er02              1255 	ld	de, #_tile
      000506 D5                    1256 	push	de
      000507 21 24 04              1257 	ld	hl, #0x424
      00050A E5                    1258 	push	hl
      00050B CDr00r00              1259 	call	_set_bkg_data
      00050E E8 04                 1260 	add	sp, #4
                                   1261 ;main.c:30: set_bkg_tiles(0, 0, 20, 18, map); /* load map */
      000510 11r00r00              1262 	ld	de, #_map
      000513 D5                    1263 	push	de
      000514 21 14 12              1264 	ld	hl, #0x1214
      000517 E5                    1265 	push	hl
      000518 AF                    1266 	xor	a, a
      000519 0F                    1267 	rrca
      00051A F5                    1268 	push	af
      00051B CDr00r00              1269 	call	_set_bkg_tiles
      00051E E8 06                 1270 	add	sp, #6
                                   1271 ;main.c:32: SHOW_SPRITES;
      000520 F0r00                 1272 	ldh	a, (_LCDC_REG + 0)
      000522 F6 02                 1273 	or	a, #0x02
      000524 E0r00                 1274 	ldh	(_LCDC_REG + 0), a
                                   1275 ;main.c:33: SHOW_BKG;
      000526 F0r00                 1276 	ldh	a, (_LCDC_REG + 0)
      000528 F6 01                 1277 	or	a, #0x01
      00052A E0r00                 1278 	ldh	(_LCDC_REG + 0), a
                                   1279 ;main.c:34: SHOW_WIN;
      00052C F0r00                 1280 	ldh	a, (_LCDC_REG + 0)
      00052E F6 20                 1281 	or	a, #0x20
      000530 E0r00                 1282 	ldh	(_LCDC_REG + 0), a
                                   1283 ;main.c:35: DISPLAY_ON;
      000532 F0r00                 1284 	ldh	a, (_LCDC_REG + 0)
      000534 F6 80                 1285 	or	a, #0x80
      000536 E0r00                 1286 	ldh	(_LCDC_REG + 0), a
                                   1287 ;main.c:37: while(1)
      000538                       1288 00102$:
                                   1289 ;main.c:39: marioMovement();
      000538 CDrF2r01              1290 	call	_marioMovement
                                   1291 ;main.c:40: enemyMovement();
      00053B CDr98r03              1292 	call	_enemyMovement
                                   1293 ;main.c:42: }
      00053E 18 F8                 1294 	jr	00102$
                                   1295 	.area _CODE
                                   1296 	.area _INITIALIZER
      000000                       1297 __xinit__map:
      000000 24                    1298 	.db #0x24	; 36
      000001 24                    1299 	.db #0x24	; 36
      000002 24                    1300 	.db #0x24	; 36
      000003 24                    1301 	.db #0x24	; 36
      000004 24                    1302 	.db #0x24	; 36
      000005 24                    1303 	.db #0x24	; 36
      000006 24                    1304 	.db #0x24	; 36
      000007 24                    1305 	.db #0x24	; 36
      000008 24                    1306 	.db #0x24	; 36
      000009 24                    1307 	.db #0x24	; 36
      00000A 24                    1308 	.db #0x24	; 36
      00000B 24                    1309 	.db #0x24	; 36
      00000C 24                    1310 	.db #0x24	; 36
      00000D 24                    1311 	.db #0x24	; 36
      00000E 24                    1312 	.db #0x24	; 36
      00000F 24                    1313 	.db #0x24	; 36
      000010 24                    1314 	.db #0x24	; 36
      000011 24                    1315 	.db #0x24	; 36
      000012 24                    1316 	.db #0x24	; 36
      000013 24                    1317 	.db #0x24	; 36
      000014 24                    1318 	.db #0x24	; 36
      000015 24                    1319 	.db #0x24	; 36
      000016 24                    1320 	.db #0x24	; 36
      000017 24                    1321 	.db #0x24	; 36
      000018 24                    1322 	.db #0x24	; 36
      000019 24                    1323 	.db #0x24	; 36
      00001A 24                    1324 	.db #0x24	; 36
      00001B 24                    1325 	.db #0x24	; 36
      00001C 24                    1326 	.db #0x24	; 36
      00001D 24                    1327 	.db #0x24	; 36
      00001E 24                    1328 	.db #0x24	; 36
      00001F 24                    1329 	.db #0x24	; 36
      000020 24                    1330 	.db #0x24	; 36
      000021 24                    1331 	.db #0x24	; 36
      000022 24                    1332 	.db #0x24	; 36
      000023 24                    1333 	.db #0x24	; 36
      000024 24                    1334 	.db #0x24	; 36
      000025 24                    1335 	.db #0x24	; 36
      000026 24                    1336 	.db #0x24	; 36
      000027 24                    1337 	.db #0x24	; 36
      000028 26                    1338 	.db #0x26	; 38
      000029 26                    1339 	.db #0x26	; 38
      00002A 26                    1340 	.db #0x26	; 38
      00002B 26                    1341 	.db #0x26	; 38
      00002C 26                    1342 	.db #0x26	; 38
      00002D 26                    1343 	.db #0x26	; 38
      00002E 26                    1344 	.db #0x26	; 38
      00002F 26                    1345 	.db #0x26	; 38
      000030 24                    1346 	.db #0x24	; 36
      000031 24                    1347 	.db #0x24	; 36
      000032 24                    1348 	.db #0x24	; 36
      000033 24                    1349 	.db #0x24	; 36
      000034 26                    1350 	.db #0x26	; 38
      000035 26                    1351 	.db #0x26	; 38
      000036 26                    1352 	.db #0x26	; 38
      000037 26                    1353 	.db #0x26	; 38
      000038 26                    1354 	.db #0x26	; 38
      000039 26                    1355 	.db #0x26	; 38
      00003A 26                    1356 	.db #0x26	; 38
      00003B 26                    1357 	.db #0x26	; 38
      00003C 24                    1358 	.db #0x24	; 36
      00003D 24                    1359 	.db #0x24	; 36
      00003E 24                    1360 	.db #0x24	; 36
      00003F 24                    1361 	.db #0x24	; 36
      000040 24                    1362 	.db #0x24	; 36
      000041 24                    1363 	.db #0x24	; 36
      000042 24                    1364 	.db #0x24	; 36
      000043 24                    1365 	.db #0x24	; 36
      000044 24                    1366 	.db #0x24	; 36
      000045 24                    1367 	.db #0x24	; 36
      000046 24                    1368 	.db #0x24	; 36
      000047 24                    1369 	.db #0x24	; 36
      000048 24                    1370 	.db #0x24	; 36
      000049 24                    1371 	.db #0x24	; 36
      00004A 24                    1372 	.db #0x24	; 36
      00004B 24                    1373 	.db #0x24	; 36
      00004C 24                    1374 	.db #0x24	; 36
      00004D 24                    1375 	.db #0x24	; 36
      00004E 24                    1376 	.db #0x24	; 36
      00004F 24                    1377 	.db #0x24	; 36
      000050 24                    1378 	.db #0x24	; 36
      000051 24                    1379 	.db #0x24	; 36
      000052 24                    1380 	.db #0x24	; 36
      000053 24                    1381 	.db #0x24	; 36
      000054 24                    1382 	.db #0x24	; 36
      000055 24                    1383 	.db #0x24	; 36
      000056 24                    1384 	.db #0x24	; 36
      000057 24                    1385 	.db #0x24	; 36
      000058 24                    1386 	.db #0x24	; 36
      000059 24                    1387 	.db #0x24	; 36
      00005A 24                    1388 	.db #0x24	; 36
      00005B 24                    1389 	.db #0x24	; 36
      00005C 24                    1390 	.db #0x24	; 36
      00005D 24                    1391 	.db #0x24	; 36
      00005E 24                    1392 	.db #0x24	; 36
      00005F 24                    1393 	.db #0x24	; 36
      000060 24                    1394 	.db #0x24	; 36
      000061 24                    1395 	.db #0x24	; 36
      000062 24                    1396 	.db #0x24	; 36
      000063 24                    1397 	.db #0x24	; 36
      000064 24                    1398 	.db #0x24	; 36
      000065 24                    1399 	.db #0x24	; 36
      000066 24                    1400 	.db #0x24	; 36
      000067 24                    1401 	.db #0x24	; 36
      000068 24                    1402 	.db #0x24	; 36
      000069 24                    1403 	.db #0x24	; 36
      00006A 24                    1404 	.db #0x24	; 36
      00006B 24                    1405 	.db #0x24	; 36
      00006C 24                    1406 	.db #0x24	; 36
      00006D 24                    1407 	.db #0x24	; 36
      00006E 24                    1408 	.db #0x24	; 36
      00006F 24                    1409 	.db #0x24	; 36
      000070 24                    1410 	.db #0x24	; 36
      000071 24                    1411 	.db #0x24	; 36
      000072 24                    1412 	.db #0x24	; 36
      000073 24                    1413 	.db #0x24	; 36
      000074 24                    1414 	.db #0x24	; 36
      000075 24                    1415 	.db #0x24	; 36
      000076 24                    1416 	.db #0x24	; 36
      000077 24                    1417 	.db #0x24	; 36
      000078 24                    1418 	.db #0x24	; 36
      000079 24                    1419 	.db #0x24	; 36
      00007A 24                    1420 	.db #0x24	; 36
      00007B 24                    1421 	.db #0x24	; 36
      00007C 24                    1422 	.db #0x24	; 36
      00007D 24                    1423 	.db #0x24	; 36
      00007E 24                    1424 	.db #0x24	; 36
      00007F 24                    1425 	.db #0x24	; 36
      000080 24                    1426 	.db #0x24	; 36
      000081 24                    1427 	.db #0x24	; 36
      000082 24                    1428 	.db #0x24	; 36
      000083 24                    1429 	.db #0x24	; 36
      000084 24                    1430 	.db #0x24	; 36
      000085 24                    1431 	.db #0x24	; 36
      000086 24                    1432 	.db #0x24	; 36
      000087 24                    1433 	.db #0x24	; 36
      000088 24                    1434 	.db #0x24	; 36
      000089 24                    1435 	.db #0x24	; 36
      00008A 24                    1436 	.db #0x24	; 36
      00008B 24                    1437 	.db #0x24	; 36
      00008C 24                    1438 	.db #0x24	; 36
      00008D 24                    1439 	.db #0x24	; 36
      00008E 24                    1440 	.db #0x24	; 36
      00008F 24                    1441 	.db #0x24	; 36
      000090 24                    1442 	.db #0x24	; 36
      000091 24                    1443 	.db #0x24	; 36
      000092 24                    1444 	.db #0x24	; 36
      000093 26                    1445 	.db #0x26	; 38
      000094 26                    1446 	.db #0x26	; 38
      000095 26                    1447 	.db #0x26	; 38
      000096 26                    1448 	.db #0x26	; 38
      000097 26                    1449 	.db #0x26	; 38
      000098 26                    1450 	.db #0x26	; 38
      000099 26                    1451 	.db #0x26	; 38
      00009A 24                    1452 	.db #0x24	; 36
      00009B 24                    1453 	.db #0x24	; 36
      00009C 24                    1454 	.db #0x24	; 36
      00009D 24                    1455 	.db #0x24	; 36
      00009E 24                    1456 	.db #0x24	; 36
      00009F 24                    1457 	.db #0x24	; 36
      0000A0 26                    1458 	.db #0x26	; 38
      0000A1 26                    1459 	.db #0x26	; 38
      0000A2 26                    1460 	.db #0x26	; 38
      0000A3 24                    1461 	.db #0x24	; 36
      0000A4 24                    1462 	.db #0x24	; 36
      0000A5 24                    1463 	.db #0x24	; 36
      0000A6 24                    1464 	.db #0x24	; 36
      0000A7 24                    1465 	.db #0x24	; 36
      0000A8 24                    1466 	.db #0x24	; 36
      0000A9 24                    1467 	.db #0x24	; 36
      0000AA 24                    1468 	.db #0x24	; 36
      0000AB 24                    1469 	.db #0x24	; 36
      0000AC 24                    1470 	.db #0x24	; 36
      0000AD 24                    1471 	.db #0x24	; 36
      0000AE 24                    1472 	.db #0x24	; 36
      0000AF 24                    1473 	.db #0x24	; 36
      0000B0 24                    1474 	.db #0x24	; 36
      0000B1 26                    1475 	.db #0x26	; 38
      0000B2 26                    1476 	.db #0x26	; 38
      0000B3 26                    1477 	.db #0x26	; 38
      0000B4 24                    1478 	.db #0x24	; 36
      0000B5 24                    1479 	.db #0x24	; 36
      0000B6 24                    1480 	.db #0x24	; 36
      0000B7 24                    1481 	.db #0x24	; 36
      0000B8 24                    1482 	.db #0x24	; 36
      0000B9 24                    1483 	.db #0x24	; 36
      0000BA 24                    1484 	.db #0x24	; 36
      0000BB 24                    1485 	.db #0x24	; 36
      0000BC 24                    1486 	.db #0x24	; 36
      0000BD 24                    1487 	.db #0x24	; 36
      0000BE 24                    1488 	.db #0x24	; 36
      0000BF 24                    1489 	.db #0x24	; 36
      0000C0 24                    1490 	.db #0x24	; 36
      0000C1 24                    1491 	.db #0x24	; 36
      0000C2 24                    1492 	.db #0x24	; 36
      0000C3 24                    1493 	.db #0x24	; 36
      0000C4 24                    1494 	.db #0x24	; 36
      0000C5 24                    1495 	.db #0x24	; 36
      0000C6 24                    1496 	.db #0x24	; 36
      0000C7 24                    1497 	.db #0x24	; 36
      0000C8 24                    1498 	.db #0x24	; 36
      0000C9 24                    1499 	.db #0x24	; 36
      0000CA 24                    1500 	.db #0x24	; 36
      0000CB 24                    1501 	.db #0x24	; 36
      0000CC 24                    1502 	.db #0x24	; 36
      0000CD 24                    1503 	.db #0x24	; 36
      0000CE 24                    1504 	.db #0x24	; 36
      0000CF 24                    1505 	.db #0x24	; 36
      0000D0 24                    1506 	.db #0x24	; 36
      0000D1 24                    1507 	.db #0x24	; 36
      0000D2 24                    1508 	.db #0x24	; 36
      0000D3 24                    1509 	.db #0x24	; 36
      0000D4 24                    1510 	.db #0x24	; 36
      0000D5 24                    1511 	.db #0x24	; 36
      0000D6 24                    1512 	.db #0x24	; 36
      0000D7 24                    1513 	.db #0x24	; 36
      0000D8 24                    1514 	.db #0x24	; 36
      0000D9 24                    1515 	.db #0x24	; 36
      0000DA 24                    1516 	.db #0x24	; 36
      0000DB 24                    1517 	.db #0x24	; 36
      0000DC 24                    1518 	.db #0x24	; 36
      0000DD 24                    1519 	.db #0x24	; 36
      0000DE 24                    1520 	.db #0x24	; 36
      0000DF 24                    1521 	.db #0x24	; 36
      0000E0 24                    1522 	.db #0x24	; 36
      0000E1 24                    1523 	.db #0x24	; 36
      0000E2 24                    1524 	.db #0x24	; 36
      0000E3 24                    1525 	.db #0x24	; 36
      0000E4 24                    1526 	.db #0x24	; 36
      0000E5 24                    1527 	.db #0x24	; 36
      0000E6 24                    1528 	.db #0x24	; 36
      0000E7 24                    1529 	.db #0x24	; 36
      0000E8 24                    1530 	.db #0x24	; 36
      0000E9 24                    1531 	.db #0x24	; 36
      0000EA 24                    1532 	.db #0x24	; 36
      0000EB 24                    1533 	.db #0x24	; 36
      0000EC 24                    1534 	.db #0x24	; 36
      0000ED 24                    1535 	.db #0x24	; 36
      0000EE 24                    1536 	.db #0x24	; 36
      0000EF 24                    1537 	.db #0x24	; 36
      0000F0 26                    1538 	.db #0x26	; 38
      0000F1 26                    1539 	.db #0x26	; 38
      0000F2 26                    1540 	.db #0x26	; 38
      0000F3 26                    1541 	.db #0x26	; 38
      0000F4 26                    1542 	.db #0x26	; 38
      0000F5 26                    1543 	.db #0x26	; 38
      0000F6 26                    1544 	.db #0x26	; 38
      0000F7 26                    1545 	.db #0x26	; 38
      0000F8 24                    1546 	.db #0x24	; 36
      0000F9 24                    1547 	.db #0x24	; 36
      0000FA 24                    1548 	.db #0x24	; 36
      0000FB 24                    1549 	.db #0x24	; 36
      0000FC 26                    1550 	.db #0x26	; 38
      0000FD 26                    1551 	.db #0x26	; 38
      0000FE 26                    1552 	.db #0x26	; 38
      0000FF 26                    1553 	.db #0x26	; 38
      000100 26                    1554 	.db #0x26	; 38
      000101 26                    1555 	.db #0x26	; 38
      000102 26                    1556 	.db #0x26	; 38
      000103 26                    1557 	.db #0x26	; 38
      000104 24                    1558 	.db #0x24	; 36
      000105 24                    1559 	.db #0x24	; 36
      000106 24                    1560 	.db #0x24	; 36
      000107 24                    1561 	.db #0x24	; 36
      000108 24                    1562 	.db #0x24	; 36
      000109 24                    1563 	.db #0x24	; 36
      00010A 24                    1564 	.db #0x24	; 36
      00010B 24                    1565 	.db #0x24	; 36
      00010C 24                    1566 	.db #0x24	; 36
      00010D 24                    1567 	.db #0x24	; 36
      00010E 24                    1568 	.db #0x24	; 36
      00010F 24                    1569 	.db #0x24	; 36
      000110 24                    1570 	.db #0x24	; 36
      000111 24                    1571 	.db #0x24	; 36
      000112 24                    1572 	.db #0x24	; 36
      000113 24                    1573 	.db #0x24	; 36
      000114 24                    1574 	.db #0x24	; 36
      000115 24                    1575 	.db #0x24	; 36
      000116 24                    1576 	.db #0x24	; 36
      000117 00                    1577 	.db #0x00	; 0
      000118 27                    1578 	.db #0x27	; 39
      000119 27                    1579 	.db #0x27	; 39
      00011A 24                    1580 	.db #0x24	; 36
      00011B 24                    1581 	.db #0x24	; 36
      00011C 24                    1582 	.db #0x24	; 36
      00011D 24                    1583 	.db #0x24	; 36
      00011E 24                    1584 	.db #0x24	; 36
      00011F 24                    1585 	.db #0x24	; 36
      000120 24                    1586 	.db #0x24	; 36
      000121 24                    1587 	.db #0x24	; 36
      000122 24                    1588 	.db #0x24	; 36
      000123 24                    1589 	.db #0x24	; 36
      000124 24                    1590 	.db #0x24	; 36
      000125 24                    1591 	.db #0x24	; 36
      000126 24                    1592 	.db #0x24	; 36
      000127 24                    1593 	.db #0x24	; 36
      000128 24                    1594 	.db #0x24	; 36
      000129 24                    1595 	.db #0x24	; 36
      00012A 27                    1596 	.db #0x27	; 39
      00012B 27                    1597 	.db #0x27	; 39
      00012C 27                    1598 	.db #0x27	; 39
      00012D 27                    1599 	.db #0x27	; 39
      00012E 24                    1600 	.db #0x24	; 36
      00012F 24                    1601 	.db #0x24	; 36
      000130 24                    1602 	.db #0x24	; 36
      000131 24                    1603 	.db #0x24	; 36
      000132 24                    1604 	.db #0x24	; 36
      000133 24                    1605 	.db #0x24	; 36
      000134 24                    1606 	.db #0x24	; 36
      000135 24                    1607 	.db #0x24	; 36
      000136 24                    1608 	.db #0x24	; 36
      000137 24                    1609 	.db #0x24	; 36
      000138 24                    1610 	.db #0x24	; 36
      000139 24                    1611 	.db #0x24	; 36
      00013A 24                    1612 	.db #0x24	; 36
      00013B 24                    1613 	.db #0x24	; 36
      00013C 24                    1614 	.db #0x24	; 36
      00013D 24                    1615 	.db #0x24	; 36
      00013E 27                    1616 	.db #0x27	; 39
      00013F 27                    1617 	.db #0x27	; 39
      000140 27                    1618 	.db #0x27	; 39
      000141 27                    1619 	.db #0x27	; 39
      000142 24                    1620 	.db #0x24	; 36
      000143 24                    1621 	.db #0x24	; 36
      000144 24                    1622 	.db #0x24	; 36
      000145 24                    1623 	.db #0x24	; 36
      000146 24                    1624 	.db #0x24	; 36
      000147 24                    1625 	.db #0x24	; 36
      000148 24                    1626 	.db #0x24	; 36
      000149 24                    1627 	.db #0x24	; 36
      00014A 24                    1628 	.db #0x24	; 36
      00014B 24                    1629 	.db #0x24	; 36
      00014C 24                    1630 	.db #0x24	; 36
      00014D 24                    1631 	.db #0x24	; 36
      00014E 24                    1632 	.db #0x24	; 36
      00014F 24                    1633 	.db #0x24	; 36
      000150 24                    1634 	.db #0x24	; 36
      000151 24                    1635 	.db #0x24	; 36
      000152 27                    1636 	.db #0x27	; 39
      000153 27                    1637 	.db #0x27	; 39
      000154 25                    1638 	.db #0x25	; 37
      000155 25                    1639 	.db #0x25	; 37
      000156 25                    1640 	.db #0x25	; 37
      000157 25                    1641 	.db #0x25	; 37
      000158 25                    1642 	.db #0x25	; 37
      000159 25                    1643 	.db #0x25	; 37
      00015A 25                    1644 	.db #0x25	; 37
      00015B 25                    1645 	.db #0x25	; 37
      00015C 25                    1646 	.db #0x25	; 37
      00015D 25                    1647 	.db #0x25	; 37
      00015E 25                    1648 	.db #0x25	; 37
      00015F 25                    1649 	.db #0x25	; 37
      000160 25                    1650 	.db #0x25	; 37
      000161 25                    1651 	.db #0x25	; 37
      000162 25                    1652 	.db #0x25	; 37
      000163 25                    1653 	.db #0x25	; 37
      000164 25                    1654 	.db #0x25	; 37
      000165 25                    1655 	.db #0x25	; 37
      000166 25                    1656 	.db #0x25	; 37
      000167 25                    1657 	.db #0x25	; 37
      000168                       1658 __xinit__scoreboard:
      000168 01                    1659 	.db #0x01	; 1
      000169 01                    1660 	.db #0x01	; 1
      00016A 01                    1661 	.db #0x01	; 1
      00016B 01                    1662 	.db #0x01	; 1
      00016C 01                    1663 	.db #0x01	; 1
      00016D 01                    1664 	.db #0x01	; 1
      00016E                       1665 __xinit__player:
      00016E 00                    1666 	.db #0x00	; 0
      00016F 00                    1667 	.db #0x00	; 0
      000170 00                    1668 	.db #0x00	; 0
      000171 00                    1669 	.db #0x00	; 0
      000172 00                    1670 	.db #0x00	; 0
      000173 00                    1671 	.db #0x00	; 0
      000174 00                    1672 	.db #0x00	; 0
      000175 00                    1673 	.db #0x00	; 0
      000176 00                    1674 	.db #0x00	; 0
      000177 00                    1675 	.db #0x00	; 0
      000178 00                    1676 	.db #0x00	; 0
      000179 00                    1677 	.db #0x00	; 0
      00017A 00                    1678 	.db #0x00	; 0
      00017B 00                    1679 	.db #0x00	; 0
      00017C 00                    1680 	.db #0x00	; 0
      00017D 01                    1681 	.db #0x01	; 1
      00017E 00                    1682 	.db #0x00	; 0
      00017F 00                    1683 	.db #0x00	; 0
      000180 00                    1684 	.db #0x00	; 0
      000181 00                    1685 	.db #0x00	; 0
      000182 00                    1686 	.db #0x00	; 0
      000183 00                    1687 	.db #0x00	; 0
      000184 1C                    1688 	.db #0x1c	; 28
      000185 1C                    1689 	.db #0x1c	; 28
      000186 7C                    1690 	.db #0x7c	; 124
      000187 7C                    1691 	.db #0x7c	; 124
      000188 FF                    1692 	.db #0xff	; 255
      000189 FF                    1693 	.db #0xff	; 255
      00018A 0C                    1694 	.db #0x0c	; 12
      00018B F0                    1695 	.db #0xf0	; 240
      00018C DB                    1696 	.db #0xdb	; 219
      00018D 24                    1697 	.db #0x24	; 36
      00018E 00                    1698 	.db #0x00	; 0
      00018F 00                    1699 	.db #0x00	; 0
      000190 00                    1700 	.db #0x00	; 0
      000191 00                    1701 	.db #0x00	; 0
      000192 00                    1702 	.db #0x00	; 0
      000193 00                    1703 	.db #0x00	; 0
      000194 00                    1704 	.db #0x00	; 0
      000195 00                    1705 	.db #0x00	; 0
      000196 00                    1706 	.db #0x00	; 0
      000197 00                    1707 	.db #0x00	; 0
      000198 00                    1708 	.db #0x00	; 0
      000199 00                    1709 	.db #0x00	; 0
      00019A 00                    1710 	.db #0x00	; 0
      00019B 00                    1711 	.db #0x00	; 0
      00019C 80                    1712 	.db #0x80	; 128
      00019D 00                    1713 	.db #0x00	; 0
      00019E 00                    1714 	.db #0x00	; 0
      00019F 01                    1715 	.db #0x01	; 1
      0001A0 00                    1716 	.db #0x00	; 0
      0001A1 03                    1717 	.db #0x03	; 3
      0001A2 00                    1718 	.db #0x00	; 0
      0001A3 01                    1719 	.db #0x01	; 1
      0001A4 00                    1720 	.db #0x00	; 0
      0001A5 00                    1721 	.db #0x00	; 0
      0001A6 00                    1722 	.db #0x00	; 0
      0001A7 00                    1723 	.db #0x00	; 0
      0001A8 03                    1724 	.db #0x03	; 3
      0001A9 03                    1725 	.db #0x03	; 3
      0001AA 07                    1726 	.db #0x07	; 7
      0001AB 07                    1727 	.db #0x07	; 7
      0001AC 0F                    1728 	.db #0x0f	; 15
      0001AD 07                    1729 	.db #0x07	; 7
      0001AE ED                    1730 	.db #0xed	; 237
      0001AF 12                    1731 	.db #0x12	; 18
      0001B0 78                    1732 	.db #0x78	; 120	'x'
      0001B1 87                    1733 	.db #0x87	; 135
      0001B2 FF                    1734 	.db #0xff	; 255
      0001B3 00                    1735 	.db #0x00	; 0
      0001B4 7E                    1736 	.db #0x7e	; 126
      0001B5 00                    1737 	.db #0x00	; 0
      0001B6 9C                    1738 	.db #0x9c	; 156
      0001B7 FE                    1739 	.db #0xfe	; 254
      0001B8 9E                    1740 	.db #0x9e	; 158
      0001B9 FF                    1741 	.db #0xff	; 255
      0001BA CE                    1742 	.db #0xce	; 206
      0001BB FF                    1743 	.db #0xff	; 255
      0001BC EE                    1744 	.db #0xee	; 238
      0001BD FF                    1745 	.db #0xff	; 255
      0001BE C0                    1746 	.db #0xc0	; 192
      0001BF 00                    1747 	.db #0x00	; 0
      0001C0 00                    1748 	.db #0x00	; 0
      0001C1 80                    1749 	.db #0x80	; 128
      0001C2 00                    1750 	.db #0x00	; 0
      0001C3 00                    1751 	.db #0x00	; 0
      0001C4 00                    1752 	.db #0x00	; 0
      0001C5 00                    1753 	.db #0x00	; 0
      0001C6 00                    1754 	.db #0x00	; 0
      0001C7 00                    1755 	.db #0x00	; 0
      0001C8 00                    1756 	.db #0x00	; 0
      0001C9 00                    1757 	.db #0x00	; 0
      0001CA C0                    1758 	.db #0xc0	; 192
      0001CB C0                    1759 	.db #0xc0	; 192
      0001CC E0                    1760 	.db #0xe0	; 224
      0001CD E0                    1761 	.db #0xe0	; 224
      0001CE 0E                    1762 	.db #0x0e	; 14
      0001CF 02                    1763 	.db #0x02	; 2
      0001D0 0E                    1764 	.db #0x0e	; 14
      0001D1 00                    1765 	.db #0x00	; 0
      0001D2 04                    1766 	.db #0x04	; 4
      0001D3 00                    1767 	.db #0x00	; 0
      0001D4 00                    1768 	.db #0x00	; 0
      0001D5 01                    1769 	.db #0x01	; 1
      0001D6 00                    1770 	.db #0x00	; 0
      0001D7 03                    1771 	.db #0x03	; 3
      0001D8 00                    1772 	.db #0x00	; 0
      0001D9 03                    1773 	.db #0x03	; 3
      0001DA 03                    1774 	.db #0x03	; 3
      0001DB 03                    1775 	.db #0x03	; 3
      0001DC 07                    1776 	.db #0x07	; 7
      0001DD 07                    1777 	.db #0x07	; 7
      0001DE 0D                    1778 	.db #0x0d	; 13
      0001DF F2                    1779 	.db #0xf2	; 242
      0001E0 00                    1780 	.db #0x00	; 0
      0001E1 FF                    1781 	.db #0xff	; 255
      0001E2 00                    1782 	.db #0x00	; 0
      0001E3 FF                    1783 	.db #0xff	; 255
      0001E4 00                    1784 	.db #0x00	; 0
      0001E5 FF                    1785 	.db #0xff	; 255
      0001E6 00                    1786 	.db #0x00	; 0
      0001E7 FF                    1787 	.db #0xff	; 255
      0001E8 00                    1788 	.db #0x00	; 0
      0001E9 C3                    1789 	.db #0xc3	; 195
      0001EA 81                    1790 	.db #0x81	; 129
      0001EB 81                    1791 	.db #0x81	; 129
      0001EC 81                    1792 	.db #0x81	; 129
      0001ED 81                    1793 	.db #0x81	; 129
      0001EE 70                    1794 	.db #0x70	; 112	'p'
      0001EF C0                    1795 	.db #0xc0	; 192
      0001F0 70                    1796 	.db #0x70	; 112	'p'
      0001F1 80                    1797 	.db #0x80	; 128
      0001F2 20                    1798 	.db #0x20	; 32
      0001F3 80                    1799 	.db #0x80	; 128
      0001F4 00                    1800 	.db #0x00	; 0
      0001F5 80                    1801 	.db #0x80	; 128
      0001F6 00                    1802 	.db #0x00	; 0
      0001F7 C0                    1803 	.db #0xc0	; 192
      0001F8 00                    1804 	.db #0x00	; 0
      0001F9 C0                    1805 	.db #0xc0	; 192
      0001FA C0                    1806 	.db #0xc0	; 192
      0001FB C0                    1807 	.db #0xc0	; 192
      0001FC E0                    1808 	.db #0xe0	; 224
      0001FD E0                    1809 	.db #0xe0	; 224
      0001FE 00                    1810 	.db #0x00	; 0
      0001FF 00                    1811 	.db #0x00	; 0
      000200 00                    1812 	.db #0x00	; 0
      000201 00                    1813 	.db #0x00	; 0
      000202 00                    1814 	.db #0x00	; 0
      000203 00                    1815 	.db #0x00	; 0
      000204 00                    1816 	.db #0x00	; 0
      000205 00                    1817 	.db #0x00	; 0
      000206 00                    1818 	.db #0x00	; 0
      000207 00                    1819 	.db #0x00	; 0
      000208 00                    1820 	.db #0x00	; 0
      000209 00                    1821 	.db #0x00	; 0
      00020A 00                    1822 	.db #0x00	; 0
      00020B 00                    1823 	.db #0x00	; 0
      00020C 00                    1824 	.db #0x00	; 0
      00020D 00                    1825 	.db #0x00	; 0
      00020E                       1826 __xinit__tile:
      00020E 00                    1827 	.db #0x00	; 0
      00020F 00                    1828 	.db #0x00	; 0
      000210 00                    1829 	.db #0x00	; 0
      000211 00                    1830 	.db #0x00	; 0
      000212 00                    1831 	.db #0x00	; 0
      000213 00                    1832 	.db #0x00	; 0
      000214 00                    1833 	.db #0x00	; 0
      000215 00                    1834 	.db #0x00	; 0
      000216 00                    1835 	.db #0x00	; 0
      000217 00                    1836 	.db #0x00	; 0
      000218 00                    1837 	.db #0x00	; 0
      000219 00                    1838 	.db #0x00	; 0
      00021A 00                    1839 	.db #0x00	; 0
      00021B 00                    1840 	.db #0x00	; 0
      00021C 00                    1841 	.db #0x00	; 0
      00021D 00                    1842 	.db #0x00	; 0
      00021E FF                    1843 	.db #0xff	; 255
      00021F 00                    1844 	.db #0x00	; 0
      000220 40                    1845 	.db #0x40	; 64
      000221 BF                    1846 	.db #0xbf	; 191
      000222 FF                    1847 	.db #0xff	; 255
      000223 00                    1848 	.db #0x00	; 0
      000224 04                    1849 	.db #0x04	; 4
      000225 FB                    1850 	.db #0xfb	; 251
      000226 FF                    1851 	.db #0xff	; 255
      000227 00                    1852 	.db #0x00	; 0
      000228 40                    1853 	.db #0x40	; 64
      000229 BF                    1854 	.db #0xbf	; 191
      00022A FF                    1855 	.db #0xff	; 255
      00022B 00                    1856 	.db #0x00	; 0
      00022C 04                    1857 	.db #0x04	; 4
      00022D FB                    1858 	.db #0xfb	; 251
      00022E 00                    1859 	.db #0x00	; 0
      00022F FF                    1860 	.db #0xff	; 255
      000230 00                    1861 	.db #0x00	; 0
      000231 C3                    1862 	.db #0xc3	; 195
      000232 00                    1863 	.db #0x00	; 0
      000233 A5                    1864 	.db #0xa5	; 165
      000234 00                    1865 	.db #0x00	; 0
      000235 99                    1866 	.db #0x99	; 153
      000236 00                    1867 	.db #0x00	; 0
      000237 99                    1868 	.db #0x99	; 153
      000238 00                    1869 	.db #0x00	; 0
      000239 A5                    1870 	.db #0xa5	; 165
      00023A 00                    1871 	.db #0x00	; 0
      00023B C3                    1872 	.db #0xc3	; 195
      00023C 00                    1873 	.db #0x00	; 0
      00023D FF                    1874 	.db #0xff	; 255
      00023E FF                    1875 	.db #0xff	; 255
      00023F FF                    1876 	.db #0xff	; 255
      000240 81                    1877 	.db #0x81	; 129
      000241 FF                    1878 	.db #0xff	; 255
      000242 BD                    1879 	.db #0xbd	; 189
      000243 C3                    1880 	.db #0xc3	; 195
      000244 A5                    1881 	.db #0xa5	; 165
      000245 C3                    1882 	.db #0xc3	; 195
      000246 A5                    1883 	.db #0xa5	; 165
      000247 C3                    1884 	.db #0xc3	; 195
      000248 BD                    1885 	.db #0xbd	; 189
      000249 C3                    1886 	.db #0xc3	; 195
      00024A 81                    1887 	.db #0x81	; 129
      00024B FF                    1888 	.db #0xff	; 255
      00024C FF                    1889 	.db #0xff	; 255
      00024D FF                    1890 	.db #0xff	; 255
      00024E 00                    1891 	.db #0x00	; 0
      00024F 00                    1892 	.db #0x00	; 0
      000250 00                    1893 	.db #0x00	; 0
      000251 00                    1894 	.db #0x00	; 0
      000252 00                    1895 	.db #0x00	; 0
      000253 00                    1896 	.db #0x00	; 0
      000254 00                    1897 	.db #0x00	; 0
      000255 00                    1898 	.db #0x00	; 0
      000256 00                    1899 	.db #0x00	; 0
      000257 00                    1900 	.db #0x00	; 0
      000258 00                    1901 	.db #0x00	; 0
      000259 00                    1902 	.db #0x00	; 0
      00025A 00                    1903 	.db #0x00	; 0
      00025B 00                    1904 	.db #0x00	; 0
      00025C 00                    1905 	.db #0x00	; 0
      00025D 00                    1906 	.db #0x00	; 0
      00025E                       1907 __xinit__enemy:
      00025E 00                    1908 	.db #0x00	; 0
      00025F 02                    1909 	.db #0x02	; 2
      000260 00                    1910 	.db #0x00	; 0
      000261 07                    1911 	.db #0x07	; 7
      000262 70                    1912 	.db #0x70	; 112	'p'
      000263 77                    1913 	.db #0x77	; 119	'w'
      000264 F8                    1914 	.db #0xf8	; 248
      000265 FF                    1915 	.db #0xff	; 255
      000266 F8                    1916 	.db #0xf8	; 248
      000267 FE                    1917 	.db #0xfe	; 254
      000268 F8                    1918 	.db #0xf8	; 248
      000269 F8                    1919 	.db #0xf8	; 248
      00026A 70                    1920 	.db #0x70	; 112	'p'
      00026B 70                    1921 	.db #0x70	; 112	'p'
      00026C 50                    1922 	.db #0x50	; 80	'P'
      00026D 00                    1923 	.db #0x00	; 0
                                   1924 	.area _CABS (ABS)
